(dp1
S'test'
p2
(lp3
(lp4
ccopy_reg
_reconstructor
p5
(cSample
Sample
p6
c__builtin__
object
p7
NtRp8
(dp9
S'channels'
p10
I1
sS'path'
p11
V/home/leo/Documents/URMP/02_Sonata_vn_vn/AuMix_02_Sonata_vn_vn.wav
p12
sS'duration'
p13
I46
sS'sample_rate'
p14
I48000
sbag5
(g6
g7
NtRp15
(dp16
g10
I1
sg11
V/home/leo/Documents/URMP/02_Sonata_vn_vn/AuSep_1_vn_02_Sonata.wav
p17
sg13
I46
sg14
I48000
sbag5
(g6
g7
NtRp18
(dp19
g10
I1
sg11
V/home/leo/Documents/URMP/02_Sonata_vn_vn/AuSep_2_vn_02_Sonata.wav
p20
sg13
I46
sg14
I48000
sbaa(lp21
g5
(g6
g7
NtRp22
(dp23
g10
I1
sg11
V/home/leo/Documents/URMP/08_Spring_fl_vn/AuMix_08_Spring_fl_vn.wav
p24
sg13
I35
sg14
I48000
sbag5
(g6
g7
NtRp25
(dp26
g10
I1
sg11
V/home/leo/Documents/URMP/08_Spring_fl_vn/AuSep_1_fl_08_Spring.wav
p27
sg13
I35
sg14
I48000
sbag5
(g6
g7
NtRp28
(dp29
g10
I1
sg11
V/home/leo/Documents/URMP/08_Spring_fl_vn/AuSep_2_vn_08_Spring.wav
p30
sg13
I35
sg14
I48000
sbaasS'train_sup'
p31
(lp32
(lp33
g5
(g6
g7
NtRp34
(dp35
g10
I1
sg11
V/home/leo/Documents/URMP/06_Entertainer_sax_sax/AuMix_06_Entertainer_sax_sax.wav
p36
sg13
I87
sg14
I48000
sbag5
(g6
g7
NtRp37
(dp38
g10
I1
sg11
V/home/leo/Documents/URMP/06_Entertainer_sax_sax/AuSep_2_sax_06_Entertainer.wav
p39
sg13
I87
sg14
I48000
sbag5
(g6
g7
NtRp40
(dp41
g10
I1
sg11
V/home/leo/Documents/URMP/06_Entertainer_sax_sax/AuSep_1_sax_06_Entertainer.wav
p42
sg13
I87
sg14
I48000
sbaa(lp43
g5
(g6
g7
NtRp44
(dp45
g10
I1
sg11
V/home/leo/Documents/URMP/01_Jupiter_vn_vc/AuMix_01_Jupiter_vn_vc.wav
p46
sg13
I62
sg14
I48000
sbag5
(g6
g7
NtRp47
(dp48
g10
I1
sg11
V/home/leo/Documents/URMP/01_Jupiter_vn_vc/AuSep_2_vc_01_Jupiter.wav
p49
sg13
I62
sg14
I48000
sbag5
(g6
g7
NtRp50
(dp51
g10
I1
sg11
V/home/leo/Documents/URMP/01_Jupiter_vn_vc/AuSep_1_vn_01_Jupiter.wav
p52
sg13
I62
sg14
I48000
sbaa(lp53
g5
(g6
g7
NtRp54
(dp55
g10
I1
sg11
V/home/leo/Documents/URMP/10_March_tpt_sax/AuMix_10_March_tpt_sax.wav
p56
sg13
I102
sg14
I48000
sbag5
(g6
g7
NtRp57
(dp58
g10
I1
sg11
V/home/leo/Documents/URMP/10_March_tpt_sax/AuSep_2_sax_10_March.wav
p59
sg13
I102
sg14
I48000
sbag5
(g6
g7
NtRp60
(dp61
g10
I1
sg11
V/home/leo/Documents/URMP/10_March_tpt_sax/AuSep_1_tpt_10_March.wav
p62
sg13
I102
sg14
I48000
sbaa(lp63
g5
(g6
g7
NtRp64
(dp65
g10
I1
sg11
V/home/leo/Documents/URMP/09_Jesus_tpt_vn/AuMix_09_Jesus_tpt_vn.wav
p66
sg13
I198
sg14
I48000
sbag5
(g6
g7
NtRp67
(dp68
g10
I1
sg11
V/home/leo/Documents/URMP/09_Jesus_tpt_vn/AuSep_2_vn_09_Jesus.wav
p69
sg13
I198
sg14
I48000
sbag5
(g6
g7
NtRp70
(dp71
g10
I1
sg11
V/home/leo/Documents/URMP/09_Jesus_tpt_vn/AuSep_1_tpt_09_Jesus.wav
p72
sg13
I198
sg14
I48000
sbaa(lp73
g5
(g6
g7
NtRp74
(dp75
g10
I1
sg11
V/home/leo/Documents/URMP/07_GString_tpt_tbn/AuMix_07_GString_tpt_tbn.wav
p76
sg13
I269
sg14
I48000
sbag5
(g6
g7
NtRp77
(dp78
g10
I1
sg11
V/home/leo/Documents/URMP/07_GString_tpt_tbn/AuSep_2_tbn_07_GString.wav
p79
sg13
I269
sg14
I48000
sbag5
(g6
g7
NtRp80
(dp81
g10
I1
sg11
V/home/leo/Documents/URMP/07_GString_tpt_tbn/AuSep_1_tpt_07_GString.wav
p82
sg13
I269
sg14
I48000
sbaa(lp83
g5
(g6
g7
NtRp84
(dp85
g10
I1
sg11
V/home/leo/Documents/URMP/04_Allegro_fl_fl/AuMix_04_Allegro_fl_fl.wav
p86
sg13
I157
sg14
I48000
sbag5
(g6
g7
NtRp87
(dp88
g10
I1
sg11
V/home/leo/Documents/URMP/04_Allegro_fl_fl/AuSep_2_fl_04_Allegro.wav
p89
sg13
I157
sg14
I48000
sbag5
(g6
g7
NtRp90
(dp91
g10
I1
sg11
V/home/leo/Documents/URMP/04_Allegro_fl_fl/AuSep_1_fl_04_Allegro.wav
p92
sg13
I157
sg14
I48000
sbaasS'valid'
p93
(lp94
(lp95
g5
(g6
g7
NtRp96
(dp97
g10
I1
sg11
V/home/leo/Documents/URMP/11_Maria_ob_vc/AuMix_11_Maria_ob_vc.wav
p98
sg13
I104
sg14
I48000
sbag5
(g6
g7
NtRp99
(dp100
g10
I1
sg11
V/home/leo/Documents/URMP/11_Maria_ob_vc/AuSep_1_ob_11_Maria.wav
p101
sg13
I104
sg14
I48000
sbag5
(g6
g7
NtRp102
(dp103
g10
I1
sg11
V/home/leo/Documents/URMP/11_Maria_ob_vc/AuSep_2_vc_11_Maria.wav
p104
sg13
I104
sg14
I48000
sbaa(lp105
g5
(g6
g7
NtRp106
(dp107
g10
I1
sg11
V/home/leo/Documents/URMP/05_Entertainer_tpt_tpt/AuMix_05_Entertainer_tpt_tpt.wav
p108
sg13
I87
sg14
I48000
sbag5
(g6
g7
NtRp109
(dp110
g10
I1
sg11
V/home/leo/Documents/URMP/05_Entertainer_tpt_tpt/AuSep_2_tpt_05_Entertainer.wav
p111
sg13
I87
sg14
I48000
sbag5
(g6
g7
NtRp112
(dp113
g10
I1
sg11
V/home/leo/Documents/URMP/05_Entertainer_tpt_tpt/AuSep_1_tpt_05_Entertainer.wav
p114
sg13
I87
sg14
I48000
sbaa(lp115
g5
(g6
g7
NtRp116
(dp117
g10
I1
sg11
V/home/leo/Documents/URMP/03_Dance_fl_cl/AuMix_03_Dance_fl_cl.wav
p118
sg13
I97
sg14
I48000
sbag5
(g6
g7
NtRp119
(dp120
g10
I1
sg11
V/home/leo/Documents/URMP/03_Dance_fl_cl/AuSep_1_fl_03_Dance.wav
p121
sg13
I97
sg14
I48000
sbag5
(g6
g7
NtRp122
(dp123
g10
I1
sg11
V/home/leo/Documents/URMP/03_Dance_fl_cl/AuSep_2_cl_03_Dance.wav
p124
sg13
I97
sg14
I48000
sbaasS'train_unsup'
p125
(lp126
s.