(dp1
S'test'
p2
(lp3
(ccopy_reg
_reconstructor
p4
(cSample
Sample
p5
c__builtin__
object
p6
NtRp7
(dp8
S'channels'
p9
I2
sS'path'
p10
V/mnt/disks/datasets/musdb18/test/AM Contra - Heart Peripheral.stem_mix.wav
p11
sS'duration'
p12
I209
sS'sample_rate'
p13
I44100
sbg4
(g5
g6
NtRp14
(dp15
g9
I2
sg10
V/mnt/disks/datasets/musdb18/test/AM Contra - Heart Peripheral.stem_accompaniment.wav
p16
sg12
I209
sg13
I44100
sbg4
(g5
g6
NtRp17
(dp18
g9
I2
sg10
V/mnt/disks/datasets/musdb18/test/AM Contra - Heart Peripheral.stem_bass.wav
p19
sg12
I209
sg13
I44100
sbg4
(g5
g6
NtRp20
(dp21
g9
I2
sg10
V/mnt/disks/datasets/musdb18/test/AM Contra - Heart Peripheral.stem_drums.wav
p22
sg12
I209
sg13
I44100
sbg4
(g5
g6
NtRp23
(dp24
g9
I2
sg10
V/mnt/disks/datasets/musdb18/test/AM Contra - Heart Peripheral.stem_other.wav
p25
sg12
I209
sg13
I44100
sbg4
(g5
g6
NtRp26
(dp27
g9
I2
sg10
V/mnt/disks/datasets/musdb18/test/AM Contra - Heart Peripheral.stem_vocals.wav
p28
sg12
I209
sg13
I44100
sbtp29
a(g4
(g5
g6
NtRp30
(dp31
g9
I2
sg10
V/mnt/disks/datasets/musdb18/test/Al James - Schoolboy Facination.stem_mix.wav
p32
sg12
I200
sg13
I44100
sbg4
(g5
g6
NtRp33
(dp34
g9
I2
sg10
V/mnt/disks/datasets/musdb18/test/Al James - Schoolboy Facination.stem_accompaniment.wav
p35
sg12
I200
sg13
I44100
sbg4
(g5
g6
NtRp36
(dp37
g9
I2
sg10
V/mnt/disks/datasets/musdb18/test/Al James - Schoolboy Facination.stem_bass.wav
p38
sg12
I200
sg13
I44100
sbg4
(g5
g6
NtRp39
(dp40
g9
I2
sg10
V/mnt/disks/datasets/musdb18/test/Al James - Schoolboy Facination.stem_drums.wav
p41
sg12
I200
sg13
I44100
sbg4
(g5
g6
NtRp42
(dp43
g9
I2
sg10
V/mnt/disks/datasets/musdb18/test/Al James - Schoolboy Facination.stem_other.wav
p44
sg12
I200
sg13
I44100
sbg4
(g5
g6
NtRp45
(dp46
g9
I2
sg10
V/mnt/disks/datasets/musdb18/test/Al James - Schoolboy Facination.stem_vocals.wav
p47
sg12
I200
sg13
I44100
sbtp48
a(g4
(g5
g6
NtRp49
(dp50
g9
I2
sg10
V/mnt/disks/datasets/musdb18/test/Angels In Amplifiers - I'm Alright.stem_mix.wav
p51
sg12
I179
sg13
I44100
sbg4
(g5
g6
NtRp52
(dp53
g9
I2
sg10
V/mnt/disks/datasets/musdb18/test/Angels In Amplifiers - I'm Alright.stem_accompaniment.wav
p54
sg12
I179
sg13
I44100
sbg4
(g5
g6
NtRp55
(dp56
g9
I2
sg10
V/mnt/disks/datasets/musdb18/test/Angels In Amplifiers - I'm Alright.stem_bass.wav
p57
sg12
I179
sg13
I44100
sbg4
(g5
g6
NtRp58
(dp59
g9
I2
sg10
V/mnt/disks/datasets/musdb18/test/Angels In Amplifiers - I'm Alright.stem_drums.wav
p60
sg12
I179
sg13
I44100
sbg4
(g5
g6
NtRp61
(dp62
g9
I2
sg10
V/mnt/disks/datasets/musdb18/test/Angels In Amplifiers - I'm Alright.stem_other.wav
p63
sg12
I179
sg13
I44100
sbg4
(g5
g6
NtRp64
(dp65
g9
I2
sg10
V/mnt/disks/datasets/musdb18/test/Angels In Amplifiers - I'm Alright.stem_vocals.wav
p66
sg12
I179
sg13
I44100
sbtp67
a(g4
(g5
g6
NtRp68
(dp69
g9
I2
sg10
V/mnt/disks/datasets/musdb18/test/Arise - Run Run Run.stem_mix.wav
p70
sg12
I219
sg13
I44100
sbg4
(g5
g6
NtRp71
(dp72
g9
I2
sg10
V/mnt/disks/datasets/musdb18/test/Arise - Run Run Run.stem_accompaniment.wav
p73
sg12
I219
sg13
I44100
sbg4
(g5
g6
NtRp74
(dp75
g9
I2
sg10
V/mnt/disks/datasets/musdb18/test/Arise - Run Run Run.stem_bass.wav
p76
sg12
I219
sg13
I44100
sbg4
(g5
g6
NtRp77
(dp78
g9
I2
sg10
V/mnt/disks/datasets/musdb18/test/Arise - Run Run Run.stem_drums.wav
p79
sg12
I219
sg13
I44100
sbg4
(g5
g6
NtRp80
(dp81
g9
I2
sg10
V/mnt/disks/datasets/musdb18/test/Arise - Run Run Run.stem_other.wav
p82
sg12
I219
sg13
I44100
sbg4
(g5
g6
NtRp83
(dp84
g9
I2
sg10
V/mnt/disks/datasets/musdb18/test/Arise - Run Run Run.stem_vocals.wav
p85
sg12
I219
sg13
I44100
sbtp86
a(g4
(g5
g6
NtRp87
(dp88
g9
I2
sg10
V/mnt/disks/datasets/musdb18/test/BKS - Bulldozer.stem_mix.wav
p89
sg12
I336
sg13
I44100
sbg4
(g5
g6
NtRp90
(dp91
g9
I2
sg10
V/mnt/disks/datasets/musdb18/test/BKS - Bulldozer.stem_accompaniment.wav
p92
sg12
I336
sg13
I44100
sbg4
(g5
g6
NtRp93
(dp94
g9
I2
sg10
V/mnt/disks/datasets/musdb18/test/BKS - Bulldozer.stem_bass.wav
p95
sg12
I336
sg13
I44100
sbg4
(g5
g6
NtRp96
(dp97
g9
I2
sg10
V/mnt/disks/datasets/musdb18/test/BKS - Bulldozer.stem_drums.wav
p98
sg12
I336
sg13
I44100
sbg4
(g5
g6
NtRp99
(dp100
g9
I2
sg10
V/mnt/disks/datasets/musdb18/test/BKS - Bulldozer.stem_other.wav
p101
sg12
I336
sg13
I44100
sbg4
(g5
g6
NtRp102
(dp103
g9
I2
sg10
V/mnt/disks/datasets/musdb18/test/BKS - Bulldozer.stem_vocals.wav
p104
sg12
I336
sg13
I44100
sbtp105
a(g4
(g5
g6
NtRp106
(dp107
g9
I2
sg10
V/mnt/disks/datasets/musdb18/test/BKS - Too Much.stem_mix.wav
p108
sg12
I219
sg13
I44100
sbg4
(g5
g6
NtRp109
(dp110
g9
I2
sg10
V/mnt/disks/datasets/musdb18/test/BKS - Too Much.stem_accompaniment.wav
p111
sg12
I219
sg13
I44100
sbg4
(g5
g6
NtRp112
(dp113
g9
I2
sg10
V/mnt/disks/datasets/musdb18/test/BKS - Too Much.stem_bass.wav
p114
sg12
I219
sg13
I44100
sbg4
(g5
g6
NtRp115
(dp116
g9
I2
sg10
V/mnt/disks/datasets/musdb18/test/BKS - Too Much.stem_drums.wav
p117
sg12
I219
sg13
I44100
sbg4
(g5
g6
NtRp118
(dp119
g9
I2
sg10
V/mnt/disks/datasets/musdb18/test/BKS - Too Much.stem_other.wav
p120
sg12
I219
sg13
I44100
sbg4
(g5
g6
NtRp121
(dp122
g9
I2
sg10
V/mnt/disks/datasets/musdb18/test/BKS - Too Much.stem_vocals.wav
p123
sg12
I219
sg13
I44100
sbtp124
a(g4
(g5
g6
NtRp125
(dp126
g9
I2
sg10
V/mnt/disks/datasets/musdb18/test/Ben Carrigan - We'll Talk About It All Tonight.stem_mix.wav
p127
sg12
I254
sg13
I44100
sbg4
(g5
g6
NtRp128
(dp129
g9
I2
sg10
V/mnt/disks/datasets/musdb18/test/Ben Carrigan - We'll Talk About It All Tonight.stem_accompaniment.wav
p130
sg12
I254
sg13
I44100
sbg4
(g5
g6
NtRp131
(dp132
g9
I2
sg10
V/mnt/disks/datasets/musdb18/test/Ben Carrigan - We'll Talk About It All Tonight.stem_bass.wav
p133
sg12
I254
sg13
I44100
sbg4
(g5
g6
NtRp134
(dp135
g9
I2
sg10
V/mnt/disks/datasets/musdb18/test/Ben Carrigan - We'll Talk About It All Tonight.stem_drums.wav
p136
sg12
I254
sg13
I44100
sbg4
(g5
g6
NtRp137
(dp138
g9
I2
sg10
V/mnt/disks/datasets/musdb18/test/Ben Carrigan - We'll Talk About It All Tonight.stem_other.wav
p139
sg12
I254
sg13
I44100
sbg4
(g5
g6
NtRp140
(dp141
g9
I2
sg10
V/mnt/disks/datasets/musdb18/test/Ben Carrigan - We'll Talk About It All Tonight.stem_vocals.wav
p142
sg12
I254
sg13
I44100
sbtp143
a(g4
(g5
g6
NtRp144
(dp145
g9
I2
sg10
V/mnt/disks/datasets/musdb18/test/Bobby Nobody - Stitch Up.stem_mix.wav
p146
sg12
I221
sg13
I44100
sbg4
(g5
g6
NtRp147
(dp148
g9
I2
sg10
V/mnt/disks/datasets/musdb18/test/Bobby Nobody - Stitch Up.stem_accompaniment.wav
p149
sg12
I221
sg13
I44100
sbg4
(g5
g6
NtRp150
(dp151
g9
I2
sg10
V/mnt/disks/datasets/musdb18/test/Bobby Nobody - Stitch Up.stem_bass.wav
p152
sg12
I221
sg13
I44100
sbg4
(g5
g6
NtRp153
(dp154
g9
I2
sg10
V/mnt/disks/datasets/musdb18/test/Bobby Nobody - Stitch Up.stem_drums.wav
p155
sg12
I221
sg13
I44100
sbg4
(g5
g6
NtRp156
(dp157
g9
I2
sg10
V/mnt/disks/datasets/musdb18/test/Bobby Nobody - Stitch Up.stem_other.wav
p158
sg12
I221
sg13
I44100
sbg4
(g5
g6
NtRp159
(dp160
g9
I2
sg10
V/mnt/disks/datasets/musdb18/test/Bobby Nobody - Stitch Up.stem_vocals.wav
p161
sg12
I221
sg13
I44100
sbtp162
a(g4
(g5
g6
NtRp163
(dp164
g9
I2
sg10
V/mnt/disks/datasets/musdb18/test/Buitraker - Revo X.stem_mix.wav
p165
sg12
I275
sg13
I44100
sbg4
(g5
g6
NtRp166
(dp167
g9
I2
sg10
V/mnt/disks/datasets/musdb18/test/Buitraker - Revo X.stem_accompaniment.wav
p168
sg12
I275
sg13
I44100
sbg4
(g5
g6
NtRp169
(dp170
g9
I2
sg10
V/mnt/disks/datasets/musdb18/test/Buitraker - Revo X.stem_bass.wav
p171
sg12
I275
sg13
I44100
sbg4
(g5
g6
NtRp172
(dp173
g9
I2
sg10
V/mnt/disks/datasets/musdb18/test/Buitraker - Revo X.stem_drums.wav
p174
sg12
I275
sg13
I44100
sbg4
(g5
g6
NtRp175
(dp176
g9
I2
sg10
V/mnt/disks/datasets/musdb18/test/Buitraker - Revo X.stem_other.wav
p177
sg12
I275
sg13
I44100
sbg4
(g5
g6
NtRp178
(dp179
g9
I2
sg10
V/mnt/disks/datasets/musdb18/test/Buitraker - Revo X.stem_vocals.wav
p180
sg12
I275
sg13
I44100
sbtp181
a(g4
(g5
g6
NtRp182
(dp183
g9
I2
sg10
V/mnt/disks/datasets/musdb18/test/Carlos Gonzalez - A Place For Us.stem_mix.wav
p184
sg12
I250
sg13
I44100
sbg4
(g5
g6
NtRp185
(dp186
g9
I2
sg10
V/mnt/disks/datasets/musdb18/test/Carlos Gonzalez - A Place For Us.stem_accompaniment.wav
p187
sg12
I250
sg13
I44100
sbg4
(g5
g6
NtRp188
(dp189
g9
I2
sg10
V/mnt/disks/datasets/musdb18/test/Carlos Gonzalez - A Place For Us.stem_bass.wav
p190
sg12
I250
sg13
I44100
sbg4
(g5
g6
NtRp191
(dp192
g9
I2
sg10
V/mnt/disks/datasets/musdb18/test/Carlos Gonzalez - A Place For Us.stem_drums.wav
p193
sg12
I250
sg13
I44100
sbg4
(g5
g6
NtRp194
(dp195
g9
I2
sg10
V/mnt/disks/datasets/musdb18/test/Carlos Gonzalez - A Place For Us.stem_other.wav
p196
sg12
I250
sg13
I44100
sbg4
(g5
g6
NtRp197
(dp198
g9
I2
sg10
V/mnt/disks/datasets/musdb18/test/Carlos Gonzalez - A Place For Us.stem_vocals.wav
p199
sg12
I250
sg13
I44100
sbtp200
a(g4
(g5
g6
NtRp201
(dp202
g9
I2
sg10
V/mnt/disks/datasets/musdb18/test/Cristina Vane - So Easy.stem_mix.wav
p203
sg12
I253
sg13
I44100
sbg4
(g5
g6
NtRp204
(dp205
g9
I2
sg10
V/mnt/disks/datasets/musdb18/test/Cristina Vane - So Easy.stem_accompaniment.wav
p206
sg12
I253
sg13
I44100
sbg4
(g5
g6
NtRp207
(dp208
g9
I2
sg10
V/mnt/disks/datasets/musdb18/test/Cristina Vane - So Easy.stem_bass.wav
p209
sg12
I253
sg13
I44100
sbg4
(g5
g6
NtRp210
(dp211
g9
I2
sg10
V/mnt/disks/datasets/musdb18/test/Cristina Vane - So Easy.stem_drums.wav
p212
sg12
I253
sg13
I44100
sbg4
(g5
g6
NtRp213
(dp214
g9
I2
sg10
V/mnt/disks/datasets/musdb18/test/Cristina Vane - So Easy.stem_other.wav
p215
sg12
I253
sg13
I44100
sbg4
(g5
g6
NtRp216
(dp217
g9
I2
sg10
V/mnt/disks/datasets/musdb18/test/Cristina Vane - So Easy.stem_vocals.wav
p218
sg12
I253
sg13
I44100
sbtp219
a(g4
(g5
g6
NtRp220
(dp221
g9
I2
sg10
V/mnt/disks/datasets/musdb18/test/Detsky Sad - Walkie Talkie.stem_mix.wav
p222
sg12
I190
sg13
I44100
sbg4
(g5
g6
NtRp223
(dp224
g9
I2
sg10
V/mnt/disks/datasets/musdb18/test/Detsky Sad - Walkie Talkie.stem_accompaniment.wav
p225
sg12
I190
sg13
I44100
sbg4
(g5
g6
NtRp226
(dp227
g9
I2
sg10
V/mnt/disks/datasets/musdb18/test/Detsky Sad - Walkie Talkie.stem_bass.wav
p228
sg12
I190
sg13
I44100
sbg4
(g5
g6
NtRp229
(dp230
g9
I2
sg10
V/mnt/disks/datasets/musdb18/test/Detsky Sad - Walkie Talkie.stem_drums.wav
p231
sg12
I190
sg13
I44100
sbg4
(g5
g6
NtRp232
(dp233
g9
I2
sg10
V/mnt/disks/datasets/musdb18/test/Detsky Sad - Walkie Talkie.stem_other.wav
p234
sg12
I190
sg13
I44100
sbg4
(g5
g6
NtRp235
(dp236
g9
I2
sg10
V/mnt/disks/datasets/musdb18/test/Detsky Sad - Walkie Talkie.stem_vocals.wav
p237
sg12
I190
sg13
I44100
sbtp238
a(g4
(g5
g6
NtRp239
(dp240
g9
I2
sg10
V/mnt/disks/datasets/musdb18/test/Enda Reilly - Cur An Long Ag Seol.stem_mix.wav
p241
sg12
I186
sg13
I44100
sbg4
(g5
g6
NtRp242
(dp243
g9
I2
sg10
V/mnt/disks/datasets/musdb18/test/Enda Reilly - Cur An Long Ag Seol.stem_accompaniment.wav
p244
sg12
I186
sg13
I44100
sbg4
(g5
g6
NtRp245
(dp246
g9
I2
sg10
V/mnt/disks/datasets/musdb18/test/Enda Reilly - Cur An Long Ag Seol.stem_bass.wav
p247
sg12
I186
sg13
I44100
sbg4
(g5
g6
NtRp248
(dp249
g9
I2
sg10
V/mnt/disks/datasets/musdb18/test/Enda Reilly - Cur An Long Ag Seol.stem_drums.wav
p250
sg12
I186
sg13
I44100
sbg4
(g5
g6
NtRp251
(dp252
g9
I2
sg10
V/mnt/disks/datasets/musdb18/test/Enda Reilly - Cur An Long Ag Seol.stem_other.wav
p253
sg12
I186
sg13
I44100
sbg4
(g5
g6
NtRp254
(dp255
g9
I2
sg10
V/mnt/disks/datasets/musdb18/test/Enda Reilly - Cur An Long Ag Seol.stem_vocals.wav
p256
sg12
I186
sg13
I44100
sbtp257
a(g4
(g5
g6
NtRp258
(dp259
g9
I2
sg10
V/mnt/disks/datasets/musdb18/test/Forkupines - Semantics.stem_mix.wav
p260
sg12
I273
sg13
I44100
sbg4
(g5
g6
NtRp261
(dp262
g9
I2
sg10
V/mnt/disks/datasets/musdb18/test/Forkupines - Semantics.stem_accompaniment.wav
p263
sg12
I273
sg13
I44100
sbg4
(g5
g6
NtRp264
(dp265
g9
I2
sg10
V/mnt/disks/datasets/musdb18/test/Forkupines - Semantics.stem_bass.wav
p266
sg12
I273
sg13
I44100
sbg4
(g5
g6
NtRp267
(dp268
g9
I2
sg10
V/mnt/disks/datasets/musdb18/test/Forkupines - Semantics.stem_drums.wav
p269
sg12
I273
sg13
I44100
sbg4
(g5
g6
NtRp270
(dp271
g9
I2
sg10
V/mnt/disks/datasets/musdb18/test/Forkupines - Semantics.stem_other.wav
p272
sg12
I273
sg13
I44100
sbg4
(g5
g6
NtRp273
(dp274
g9
I2
sg10
V/mnt/disks/datasets/musdb18/test/Forkupines - Semantics.stem_vocals.wav
p275
sg12
I273
sg13
I44100
sbtp276
a(g4
(g5
g6
NtRp277
(dp278
g9
I2
sg10
V/mnt/disks/datasets/musdb18/test/Georgia Wonder - Siren.stem_mix.wav
p279
sg12
I430
sg13
I44100
sbg4
(g5
g6
NtRp280
(dp281
g9
I2
sg10
V/mnt/disks/datasets/musdb18/test/Georgia Wonder - Siren.stem_accompaniment.wav
p282
sg12
I430
sg13
I44100
sbg4
(g5
g6
NtRp283
(dp284
g9
I2
sg10
V/mnt/disks/datasets/musdb18/test/Georgia Wonder - Siren.stem_bass.wav
p285
sg12
I430
sg13
I44100
sbg4
(g5
g6
NtRp286
(dp287
g9
I2
sg10
V/mnt/disks/datasets/musdb18/test/Georgia Wonder - Siren.stem_drums.wav
p288
sg12
I430
sg13
I44100
sbg4
(g5
g6
NtRp289
(dp290
g9
I2
sg10
V/mnt/disks/datasets/musdb18/test/Georgia Wonder - Siren.stem_other.wav
p291
sg12
I430
sg13
I44100
sbg4
(g5
g6
NtRp292
(dp293
g9
I2
sg10
V/mnt/disks/datasets/musdb18/test/Georgia Wonder - Siren.stem_vocals.wav
p294
sg12
I430
sg13
I44100
sbtp295
a(g4
(g5
g6
NtRp296
(dp297
g9
I2
sg10
V/mnt/disks/datasets/musdb18/test/Girls Under Glass - We Feel Alright.stem_mix.wav
p298
sg12
I317
sg13
I44100
sbg4
(g5
g6
NtRp299
(dp300
g9
I2
sg10
V/mnt/disks/datasets/musdb18/test/Girls Under Glass - We Feel Alright.stem_accompaniment.wav
p301
sg12
I317
sg13
I44100
sbg4
(g5
g6
NtRp302
(dp303
g9
I2
sg10
V/mnt/disks/datasets/musdb18/test/Girls Under Glass - We Feel Alright.stem_bass.wav
p304
sg12
I317
sg13
I44100
sbg4
(g5
g6
NtRp305
(dp306
g9
I2
sg10
V/mnt/disks/datasets/musdb18/test/Girls Under Glass - We Feel Alright.stem_drums.wav
p307
sg12
I317
sg13
I44100
sbg4
(g5
g6
NtRp308
(dp309
g9
I2
sg10
V/mnt/disks/datasets/musdb18/test/Girls Under Glass - We Feel Alright.stem_other.wav
p310
sg12
I317
sg13
I44100
sbg4
(g5
g6
NtRp311
(dp312
g9
I2
sg10
V/mnt/disks/datasets/musdb18/test/Girls Under Glass - We Feel Alright.stem_vocals.wav
p313
sg12
I317
sg13
I44100
sbtp314
a(g4
(g5
g6
NtRp315
(dp316
g9
I2
sg10
V/mnt/disks/datasets/musdb18/test/Hollow Ground - Ill Fate.stem_mix.wav
p317
sg12
I141
sg13
I44100
sbg4
(g5
g6
NtRp318
(dp319
g9
I2
sg10
V/mnt/disks/datasets/musdb18/test/Hollow Ground - Ill Fate.stem_accompaniment.wav
p320
sg12
I141
sg13
I44100
sbg4
(g5
g6
NtRp321
(dp322
g9
I2
sg10
V/mnt/disks/datasets/musdb18/test/Hollow Ground - Ill Fate.stem_bass.wav
p323
sg12
I141
sg13
I44100
sbg4
(g5
g6
NtRp324
(dp325
g9
I2
sg10
V/mnt/disks/datasets/musdb18/test/Hollow Ground - Ill Fate.stem_drums.wav
p326
sg12
I141
sg13
I44100
sbg4
(g5
g6
NtRp327
(dp328
g9
I2
sg10
V/mnt/disks/datasets/musdb18/test/Hollow Ground - Ill Fate.stem_other.wav
p329
sg12
I141
sg13
I44100
sbg4
(g5
g6
NtRp330
(dp331
g9
I2
sg10
V/mnt/disks/datasets/musdb18/test/Hollow Ground - Ill Fate.stem_vocals.wav
p332
sg12
I141
sg13
I44100
sbtp333
a(g4
(g5
g6
NtRp334
(dp335
g9
I2
sg10
V/mnt/disks/datasets/musdb18/test/James Elder & Mark M Thompson - The English Actor.stem_mix.wav
p336
sg12
I205
sg13
I44100
sbg4
(g5
g6
NtRp337
(dp338
g9
I2
sg10
V/mnt/disks/datasets/musdb18/test/James Elder & Mark M Thompson - The English Actor.stem_accompaniment.wav
p339
sg12
I205
sg13
I44100
sbg4
(g5
g6
NtRp340
(dp341
g9
I2
sg10
V/mnt/disks/datasets/musdb18/test/James Elder & Mark M Thompson - The English Actor.stem_bass.wav
p342
sg12
I205
sg13
I44100
sbg4
(g5
g6
NtRp343
(dp344
g9
I2
sg10
V/mnt/disks/datasets/musdb18/test/James Elder & Mark M Thompson - The English Actor.stem_drums.wav
p345
sg12
I205
sg13
I44100
sbg4
(g5
g6
NtRp346
(dp347
g9
I2
sg10
V/mnt/disks/datasets/musdb18/test/James Elder & Mark M Thompson - The English Actor.stem_other.wav
p348
sg12
I205
sg13
I44100
sbg4
(g5
g6
NtRp349
(dp350
g9
I2
sg10
V/mnt/disks/datasets/musdb18/test/James Elder & Mark M Thompson - The English Actor.stem_vocals.wav
p351
sg12
I205
sg13
I44100
sbtp352
a(g4
(g5
g6
NtRp353
(dp354
g9
I2
sg10
V/mnt/disks/datasets/musdb18/test/Juliet's Rescue - Heartbeats.stem_mix.wav
p355
sg12
I267
sg13
I44100
sbg4
(g5
g6
NtRp356
(dp357
g9
I2
sg10
V/mnt/disks/datasets/musdb18/test/Juliet's Rescue - Heartbeats.stem_accompaniment.wav
p358
sg12
I267
sg13
I44100
sbg4
(g5
g6
NtRp359
(dp360
g9
I2
sg10
V/mnt/disks/datasets/musdb18/test/Juliet's Rescue - Heartbeats.stem_bass.wav
p361
sg12
I267
sg13
I44100
sbg4
(g5
g6
NtRp362
(dp363
g9
I2
sg10
V/mnt/disks/datasets/musdb18/test/Juliet's Rescue - Heartbeats.stem_drums.wav
p364
sg12
I267
sg13
I44100
sbg4
(g5
g6
NtRp365
(dp366
g9
I2
sg10
V/mnt/disks/datasets/musdb18/test/Juliet's Rescue - Heartbeats.stem_other.wav
p367
sg12
I267
sg13
I44100
sbg4
(g5
g6
NtRp368
(dp369
g9
I2
sg10
V/mnt/disks/datasets/musdb18/test/Juliet's Rescue - Heartbeats.stem_vocals.wav
p370
sg12
I267
sg13
I44100
sbtp371
a(g4
(g5
g6
NtRp372
(dp373
g9
I2
sg10
V/mnt/disks/datasets/musdb18/test/Little Chicago's Finest - My Own.stem_mix.wav
p374
sg12
I281
sg13
I44100
sbg4
(g5
g6
NtRp375
(dp376
g9
I2
sg10
V/mnt/disks/datasets/musdb18/test/Little Chicago's Finest - My Own.stem_accompaniment.wav
p377
sg12
I281
sg13
I44100
sbg4
(g5
g6
NtRp378
(dp379
g9
I2
sg10
V/mnt/disks/datasets/musdb18/test/Little Chicago's Finest - My Own.stem_bass.wav
p380
sg12
I281
sg13
I44100
sbg4
(g5
g6
NtRp381
(dp382
g9
I2
sg10
V/mnt/disks/datasets/musdb18/test/Little Chicago's Finest - My Own.stem_drums.wav
p383
sg12
I281
sg13
I44100
sbg4
(g5
g6
NtRp384
(dp385
g9
I2
sg10
V/mnt/disks/datasets/musdb18/test/Little Chicago's Finest - My Own.stem_other.wav
p386
sg12
I281
sg13
I44100
sbg4
(g5
g6
NtRp387
(dp388
g9
I2
sg10
V/mnt/disks/datasets/musdb18/test/Little Chicago's Finest - My Own.stem_vocals.wav
p389
sg12
I281
sg13
I44100
sbtp390
a(g4
(g5
g6
NtRp391
(dp392
g9
I2
sg10
V/mnt/disks/datasets/musdb18/test/Louis Cressy Band - Good Time.stem_mix.wav
p393
sg12
I292
sg13
I44100
sbg4
(g5
g6
NtRp394
(dp395
g9
I2
sg10
V/mnt/disks/datasets/musdb18/test/Louis Cressy Band - Good Time.stem_accompaniment.wav
p396
sg12
I292
sg13
I44100
sbg4
(g5
g6
NtRp397
(dp398
g9
I2
sg10
V/mnt/disks/datasets/musdb18/test/Louis Cressy Band - Good Time.stem_bass.wav
p399
sg12
I292
sg13
I44100
sbg4
(g5
g6
NtRp400
(dp401
g9
I2
sg10
V/mnt/disks/datasets/musdb18/test/Louis Cressy Band - Good Time.stem_drums.wav
p402
sg12
I292
sg13
I44100
sbg4
(g5
g6
NtRp403
(dp404
g9
I2
sg10
V/mnt/disks/datasets/musdb18/test/Louis Cressy Band - Good Time.stem_other.wav
p405
sg12
I292
sg13
I44100
sbg4
(g5
g6
NtRp406
(dp407
g9
I2
sg10
V/mnt/disks/datasets/musdb18/test/Louis Cressy Band - Good Time.stem_vocals.wav
p408
sg12
I292
sg13
I44100
sbtp409
a(g4
(g5
g6
NtRp410
(dp411
g9
I2
sg10
V/mnt/disks/datasets/musdb18/test/Lyndsey Ollard - Catching Up.stem_mix.wav
p412
sg12
I227
sg13
I44100
sbg4
(g5
g6
NtRp413
(dp414
g9
I2
sg10
V/mnt/disks/datasets/musdb18/test/Lyndsey Ollard - Catching Up.stem_accompaniment.wav
p415
sg12
I227
sg13
I44100
sbg4
(g5
g6
NtRp416
(dp417
g9
I2
sg10
V/mnt/disks/datasets/musdb18/test/Lyndsey Ollard - Catching Up.stem_bass.wav
p418
sg12
I227
sg13
I44100
sbg4
(g5
g6
NtRp419
(dp420
g9
I2
sg10
V/mnt/disks/datasets/musdb18/test/Lyndsey Ollard - Catching Up.stem_drums.wav
p421
sg12
I227
sg13
I44100
sbg4
(g5
g6
NtRp422
(dp423
g9
I2
sg10
V/mnt/disks/datasets/musdb18/test/Lyndsey Ollard - Catching Up.stem_other.wav
p424
sg12
I227
sg13
I44100
sbg4
(g5
g6
NtRp425
(dp426
g9
I2
sg10
V/mnt/disks/datasets/musdb18/test/Lyndsey Ollard - Catching Up.stem_vocals.wav
p427
sg12
I227
sg13
I44100
sbtp428
a(g4
(g5
g6
NtRp429
(dp430
g9
I2
sg10
V/mnt/disks/datasets/musdb18/test/M.E.R.C. Music - Knockout.stem_mix.wav
p431
sg12
I269
sg13
I44100
sbg4
(g5
g6
NtRp432
(dp433
g9
I2
sg10
V/mnt/disks/datasets/musdb18/test/M.E.R.C. Music - Knockout.stem_accompaniment.wav
p434
sg12
I269
sg13
I44100
sbg4
(g5
g6
NtRp435
(dp436
g9
I2
sg10
V/mnt/disks/datasets/musdb18/test/M.E.R.C. Music - Knockout.stem_bass.wav
p437
sg12
I269
sg13
I44100
sbg4
(g5
g6
NtRp438
(dp439
g9
I2
sg10
V/mnt/disks/datasets/musdb18/test/M.E.R.C. Music - Knockout.stem_drums.wav
p440
sg12
I269
sg13
I44100
sbg4
(g5
g6
NtRp441
(dp442
g9
I2
sg10
V/mnt/disks/datasets/musdb18/test/M.E.R.C. Music - Knockout.stem_other.wav
p443
sg12
I269
sg13
I44100
sbg4
(g5
g6
NtRp444
(dp445
g9
I2
sg10
V/mnt/disks/datasets/musdb18/test/M.E.R.C. Music - Knockout.stem_vocals.wav
p446
sg12
I269
sg13
I44100
sbtp447
a(g4
(g5
g6
NtRp448
(dp449
g9
I2
sg10
V/mnt/disks/datasets/musdb18/test/Moosmusic - Big Dummy Shake.stem_mix.wav
p450
sg12
I198
sg13
I44100
sbg4
(g5
g6
NtRp451
(dp452
g9
I2
sg10
V/mnt/disks/datasets/musdb18/test/Moosmusic - Big Dummy Shake.stem_accompaniment.wav
p453
sg12
I198
sg13
I44100
sbg4
(g5
g6
NtRp454
(dp455
g9
I2
sg10
V/mnt/disks/datasets/musdb18/test/Moosmusic - Big Dummy Shake.stem_bass.wav
p456
sg12
I198
sg13
I44100
sbg4
(g5
g6
NtRp457
(dp458
g9
I2
sg10
V/mnt/disks/datasets/musdb18/test/Moosmusic - Big Dummy Shake.stem_drums.wav
p459
sg12
I198
sg13
I44100
sbg4
(g5
g6
NtRp460
(dp461
g9
I2
sg10
V/mnt/disks/datasets/musdb18/test/Moosmusic - Big Dummy Shake.stem_other.wav
p462
sg12
I198
sg13
I44100
sbg4
(g5
g6
NtRp463
(dp464
g9
I2
sg10
V/mnt/disks/datasets/musdb18/test/Moosmusic - Big Dummy Shake.stem_vocals.wav
p465
sg12
I198
sg13
I44100
sbtp466
a(g4
(g5
g6
NtRp467
(dp468
g9
I2
sg10
V/mnt/disks/datasets/musdb18/test/Motor Tapes - Shore.stem_mix.wav
p469
sg12
I246
sg13
I44100
sbg4
(g5
g6
NtRp470
(dp471
g9
I2
sg10
V/mnt/disks/datasets/musdb18/test/Motor Tapes - Shore.stem_accompaniment.wav
p472
sg12
I246
sg13
I44100
sbg4
(g5
g6
NtRp473
(dp474
g9
I2
sg10
V/mnt/disks/datasets/musdb18/test/Motor Tapes - Shore.stem_bass.wav
p475
sg12
I246
sg13
I44100
sbg4
(g5
g6
NtRp476
(dp477
g9
I2
sg10
V/mnt/disks/datasets/musdb18/test/Motor Tapes - Shore.stem_drums.wav
p478
sg12
I246
sg13
I44100
sbg4
(g5
g6
NtRp479
(dp480
g9
I2
sg10
V/mnt/disks/datasets/musdb18/test/Motor Tapes - Shore.stem_other.wav
p481
sg12
I246
sg13
I44100
sbg4
(g5
g6
NtRp482
(dp483
g9
I2
sg10
V/mnt/disks/datasets/musdb18/test/Motor Tapes - Shore.stem_vocals.wav
p484
sg12
I246
sg13
I44100
sbtp485
a(g4
(g5
g6
NtRp486
(dp487
g9
I2
sg10
V/mnt/disks/datasets/musdb18/test/Mu - Too Bright.stem_mix.wav
p488
sg12
I271
sg13
I44100
sbg4
(g5
g6
NtRp489
(dp490
g9
I2
sg10
V/mnt/disks/datasets/musdb18/test/Mu - Too Bright.stem_accompaniment.wav
p491
sg12
I271
sg13
I44100
sbg4
(g5
g6
NtRp492
(dp493
g9
I2
sg10
V/mnt/disks/datasets/musdb18/test/Mu - Too Bright.stem_bass.wav
p494
sg12
I271
sg13
I44100
sbg4
(g5
g6
NtRp495
(dp496
g9
I2
sg10
V/mnt/disks/datasets/musdb18/test/Mu - Too Bright.stem_drums.wav
p497
sg12
I271
sg13
I44100
sbg4
(g5
g6
NtRp498
(dp499
g9
I2
sg10
V/mnt/disks/datasets/musdb18/test/Mu - Too Bright.stem_other.wav
p500
sg12
I271
sg13
I44100
sbg4
(g5
g6
NtRp501
(dp502
g9
I2
sg10
V/mnt/disks/datasets/musdb18/test/Mu - Too Bright.stem_vocals.wav
p503
sg12
I271
sg13
I44100
sbtp504
a(g4
(g5
g6
NtRp505
(dp506
g9
I2
sg10
V/mnt/disks/datasets/musdb18/test/Nerve 9 - Pray For The Rain.stem_mix.wav
p507
sg12
I343
sg13
I44100
sbg4
(g5
g6
NtRp508
(dp509
g9
I2
sg10
V/mnt/disks/datasets/musdb18/test/Nerve 9 - Pray For The Rain.stem_accompaniment.wav
p510
sg12
I343
sg13
I44100
sbg4
(g5
g6
NtRp511
(dp512
g9
I2
sg10
V/mnt/disks/datasets/musdb18/test/Nerve 9 - Pray For The Rain.stem_bass.wav
p513
sg12
I343
sg13
I44100
sbg4
(g5
g6
NtRp514
(dp515
g9
I2
sg10
V/mnt/disks/datasets/musdb18/test/Nerve 9 - Pray For The Rain.stem_drums.wav
p516
sg12
I343
sg13
I44100
sbg4
(g5
g6
NtRp517
(dp518
g9
I2
sg10
V/mnt/disks/datasets/musdb18/test/Nerve 9 - Pray For The Rain.stem_other.wav
p519
sg12
I343
sg13
I44100
sbg4
(g5
g6
NtRp520
(dp521
g9
I2
sg10
V/mnt/disks/datasets/musdb18/test/Nerve 9 - Pray For The Rain.stem_vocals.wav
p522
sg12
I343
sg13
I44100
sbtp523
a(g4
(g5
g6
NtRp524
(dp525
g9
I2
sg10
V/mnt/disks/datasets/musdb18/test/PR - Happy Daze.stem_mix.wav
p526
sg12
I162
sg13
I44100
sbg4
(g5
g6
NtRp527
(dp528
g9
I2
sg10
V/mnt/disks/datasets/musdb18/test/PR - Happy Daze.stem_accompaniment.wav
p529
sg12
I162
sg13
I44100
sbg4
(g5
g6
NtRp530
(dp531
g9
I2
sg10
V/mnt/disks/datasets/musdb18/test/PR - Happy Daze.stem_bass.wav
p532
sg12
I162
sg13
I44100
sbg4
(g5
g6
NtRp533
(dp534
g9
I2
sg10
V/mnt/disks/datasets/musdb18/test/PR - Happy Daze.stem_drums.wav
p535
sg12
I162
sg13
I44100
sbg4
(g5
g6
NtRp536
(dp537
g9
I2
sg10
V/mnt/disks/datasets/musdb18/test/PR - Happy Daze.stem_other.wav
p538
sg12
I162
sg13
I44100
sbg4
(g5
g6
NtRp539
(dp540
g9
I2
sg10
V/mnt/disks/datasets/musdb18/test/PR - Happy Daze.stem_vocals.wav
p541
sg12
I162
sg13
I44100
sbtp542
a(g4
(g5
g6
NtRp543
(dp544
g9
I2
sg10
V/mnt/disks/datasets/musdb18/test/PR - Oh No.stem_mix.wav
p545
sg12
I75
sg13
I44100
sbg4
(g5
g6
NtRp546
(dp547
g9
I2
sg10
V/mnt/disks/datasets/musdb18/test/PR - Oh No.stem_accompaniment.wav
p548
sg12
I75
sg13
I44100
sbg4
(g5
g6
NtRp549
(dp550
g9
I2
sg10
V/mnt/disks/datasets/musdb18/test/PR - Oh No.stem_bass.wav
p551
sg12
I75
sg13
I44100
sbg4
(g5
g6
NtRp552
(dp553
g9
I2
sg10
V/mnt/disks/datasets/musdb18/test/PR - Oh No.stem_drums.wav
p554
sg12
I75
sg13
I44100
sbg4
(g5
g6
NtRp555
(dp556
g9
I2
sg10
V/mnt/disks/datasets/musdb18/test/PR - Oh No.stem_other.wav
p557
sg12
I75
sg13
I44100
sbg4
(g5
g6
NtRp558
(dp559
g9
I2
sg10
V/mnt/disks/datasets/musdb18/test/PR - Oh No.stem_vocals.wav
p560
sg12
I75
sg13
I44100
sbtp561
a(g4
(g5
g6
NtRp562
(dp563
g9
I2
sg10
V/mnt/disks/datasets/musdb18/test/Punkdisco - Oral Hygiene.stem_mix.wav
p564
sg12
I221
sg13
I44100
sbg4
(g5
g6
NtRp565
(dp566
g9
I2
sg10
V/mnt/disks/datasets/musdb18/test/Punkdisco - Oral Hygiene.stem_accompaniment.wav
p567
sg12
I221
sg13
I44100
sbg4
(g5
g6
NtRp568
(dp569
g9
I2
sg10
V/mnt/disks/datasets/musdb18/test/Punkdisco - Oral Hygiene.stem_bass.wav
p570
sg12
I221
sg13
I44100
sbg4
(g5
g6
NtRp571
(dp572
g9
I2
sg10
V/mnt/disks/datasets/musdb18/test/Punkdisco - Oral Hygiene.stem_drums.wav
p573
sg12
I221
sg13
I44100
sbg4
(g5
g6
NtRp574
(dp575
g9
I2
sg10
V/mnt/disks/datasets/musdb18/test/Punkdisco - Oral Hygiene.stem_other.wav
p576
sg12
I221
sg13
I44100
sbg4
(g5
g6
NtRp577
(dp578
g9
I2
sg10
V/mnt/disks/datasets/musdb18/test/Punkdisco - Oral Hygiene.stem_vocals.wav
p579
sg12
I221
sg13
I44100
sbtp580
a(g4
(g5
g6
NtRp581
(dp582
g9
I2
sg10
V/mnt/disks/datasets/musdb18/test/Raft Monk - Tiring.stem_mix.wav
p583
sg12
I212
sg13
I44100
sbg4
(g5
g6
NtRp584
(dp585
g9
I2
sg10
V/mnt/disks/datasets/musdb18/test/Raft Monk - Tiring.stem_accompaniment.wav
p586
sg12
I212
sg13
I44100
sbg4
(g5
g6
NtRp587
(dp588
g9
I2
sg10
V/mnt/disks/datasets/musdb18/test/Raft Monk - Tiring.stem_bass.wav
p589
sg12
I212
sg13
I44100
sbg4
(g5
g6
NtRp590
(dp591
g9
I2
sg10
V/mnt/disks/datasets/musdb18/test/Raft Monk - Tiring.stem_drums.wav
p592
sg12
I212
sg13
I44100
sbg4
(g5
g6
NtRp593
(dp594
g9
I2
sg10
V/mnt/disks/datasets/musdb18/test/Raft Monk - Tiring.stem_other.wav
p595
sg12
I212
sg13
I44100
sbg4
(g5
g6
NtRp596
(dp597
g9
I2
sg10
V/mnt/disks/datasets/musdb18/test/Raft Monk - Tiring.stem_vocals.wav
p598
sg12
I212
sg13
I44100
sbtp599
a(g4
(g5
g6
NtRp600
(dp601
g9
I2
sg10
V/mnt/disks/datasets/musdb18/test/Sambasevam Shanmugam - Kaathaadi.stem_mix.wav
p602
sg12
I317
sg13
I44100
sbg4
(g5
g6
NtRp603
(dp604
g9
I2
sg10
V/mnt/disks/datasets/musdb18/test/Sambasevam Shanmugam - Kaathaadi.stem_accompaniment.wav
p605
sg12
I317
sg13
I44100
sbg4
(g5
g6
NtRp606
(dp607
g9
I2
sg10
V/mnt/disks/datasets/musdb18/test/Sambasevam Shanmugam - Kaathaadi.stem_bass.wav
p608
sg12
I317
sg13
I44100
sbg4
(g5
g6
NtRp609
(dp610
g9
I2
sg10
V/mnt/disks/datasets/musdb18/test/Sambasevam Shanmugam - Kaathaadi.stem_drums.wav
p611
sg12
I317
sg13
I44100
sbg4
(g5
g6
NtRp612
(dp613
g9
I2
sg10
V/mnt/disks/datasets/musdb18/test/Sambasevam Shanmugam - Kaathaadi.stem_other.wav
p614
sg12
I317
sg13
I44100
sbg4
(g5
g6
NtRp615
(dp616
g9
I2
sg10
V/mnt/disks/datasets/musdb18/test/Sambasevam Shanmugam - Kaathaadi.stem_vocals.wav
p617
sg12
I317
sg13
I44100
sbtp618
a(g4
(g5
g6
NtRp619
(dp620
g9
I2
sg10
V/mnt/disks/datasets/musdb18/test/Secretariat - Borderline.stem_mix.wav
p621
sg12
I286
sg13
I44100
sbg4
(g5
g6
NtRp622
(dp623
g9
I2
sg10
V/mnt/disks/datasets/musdb18/test/Secretariat - Borderline.stem_accompaniment.wav
p624
sg12
I286
sg13
I44100
sbg4
(g5
g6
NtRp625
(dp626
g9
I2
sg10
V/mnt/disks/datasets/musdb18/test/Secretariat - Borderline.stem_bass.wav
p627
sg12
I286
sg13
I44100
sbg4
(g5
g6
NtRp628
(dp629
g9
I2
sg10
V/mnt/disks/datasets/musdb18/test/Secretariat - Borderline.stem_drums.wav
p630
sg12
I286
sg13
I44100
sbg4
(g5
g6
NtRp631
(dp632
g9
I2
sg10
V/mnt/disks/datasets/musdb18/test/Secretariat - Borderline.stem_other.wav
p633
sg12
I286
sg13
I44100
sbg4
(g5
g6
NtRp634
(dp635
g9
I2
sg10
V/mnt/disks/datasets/musdb18/test/Secretariat - Borderline.stem_vocals.wav
p636
sg12
I286
sg13
I44100
sbtp637
a(g4
(g5
g6
NtRp638
(dp639
g9
I2
sg10
V/mnt/disks/datasets/musdb18/test/Secretariat - Over The Top.stem_mix.wav
p640
sg12
I250
sg13
I44100
sbg4
(g5
g6
NtRp641
(dp642
g9
I2
sg10
V/mnt/disks/datasets/musdb18/test/Secretariat - Over The Top.stem_accompaniment.wav
p643
sg12
I250
sg13
I44100
sbg4
(g5
g6
NtRp644
(dp645
g9
I2
sg10
V/mnt/disks/datasets/musdb18/test/Secretariat - Over The Top.stem_bass.wav
p646
sg12
I250
sg13
I44100
sbg4
(g5
g6
NtRp647
(dp648
g9
I2
sg10
V/mnt/disks/datasets/musdb18/test/Secretariat - Over The Top.stem_drums.wav
p649
sg12
I250
sg13
I44100
sbg4
(g5
g6
NtRp650
(dp651
g9
I2
sg10
V/mnt/disks/datasets/musdb18/test/Secretariat - Over The Top.stem_other.wav
p652
sg12
I250
sg13
I44100
sbg4
(g5
g6
NtRp653
(dp654
g9
I2
sg10
V/mnt/disks/datasets/musdb18/test/Secretariat - Over The Top.stem_vocals.wav
p655
sg12
I250
sg13
I44100
sbtp656
a(g4
(g5
g6
NtRp657
(dp658
g9
I2
sg10
V/mnt/disks/datasets/musdb18/test/Side Effects Project - Sing With Me.stem_mix.wav
p659
sg12
I243
sg13
I44100
sbg4
(g5
g6
NtRp660
(dp661
g9
I2
sg10
V/mnt/disks/datasets/musdb18/test/Side Effects Project - Sing With Me.stem_accompaniment.wav
p662
sg12
I243
sg13
I44100
sbg4
(g5
g6
NtRp663
(dp664
g9
I2
sg10
V/mnt/disks/datasets/musdb18/test/Side Effects Project - Sing With Me.stem_bass.wav
p665
sg12
I243
sg13
I44100
sbg4
(g5
g6
NtRp666
(dp667
g9
I2
sg10
V/mnt/disks/datasets/musdb18/test/Side Effects Project - Sing With Me.stem_drums.wav
p668
sg12
I243
sg13
I44100
sbg4
(g5
g6
NtRp669
(dp670
g9
I2
sg10
V/mnt/disks/datasets/musdb18/test/Side Effects Project - Sing With Me.stem_other.wav
p671
sg12
I243
sg13
I44100
sbg4
(g5
g6
NtRp672
(dp673
g9
I2
sg10
V/mnt/disks/datasets/musdb18/test/Side Effects Project - Sing With Me.stem_vocals.wav
p674
sg12
I243
sg13
I44100
sbtp675
a(g4
(g5
g6
NtRp676
(dp677
g9
I2
sg10
V/mnt/disks/datasets/musdb18/test/Signe Jakobsen - What Have You Done To Me.stem_mix.wav
p678
sg12
I177
sg13
I44100
sbg4
(g5
g6
NtRp679
(dp680
g9
I2
sg10
V/mnt/disks/datasets/musdb18/test/Signe Jakobsen - What Have You Done To Me.stem_accompaniment.wav
p681
sg12
I177
sg13
I44100
sbg4
(g5
g6
NtRp682
(dp683
g9
I2
sg10
V/mnt/disks/datasets/musdb18/test/Signe Jakobsen - What Have You Done To Me.stem_bass.wav
p684
sg12
I177
sg13
I44100
sbg4
(g5
g6
NtRp685
(dp686
g9
I2
sg10
V/mnt/disks/datasets/musdb18/test/Signe Jakobsen - What Have You Done To Me.stem_drums.wav
p687
sg12
I177
sg13
I44100
sbg4
(g5
g6
NtRp688
(dp689
g9
I2
sg10
V/mnt/disks/datasets/musdb18/test/Signe Jakobsen - What Have You Done To Me.stem_other.wav
p690
sg12
I177
sg13
I44100
sbg4
(g5
g6
NtRp691
(dp692
g9
I2
sg10
V/mnt/disks/datasets/musdb18/test/Signe Jakobsen - What Have You Done To Me.stem_vocals.wav
p693
sg12
I177
sg13
I44100
sbtp694
a(g4
(g5
g6
NtRp695
(dp696
g9
I2
sg10
V/mnt/disks/datasets/musdb18/test/Skelpolu - Resurrection.stem_mix.wav
p697
sg12
I395
sg13
I44100
sbg4
(g5
g6
NtRp698
(dp699
g9
I2
sg10
V/mnt/disks/datasets/musdb18/test/Skelpolu - Resurrection.stem_accompaniment.wav
p700
sg12
I395
sg13
I44100
sbg4
(g5
g6
NtRp701
(dp702
g9
I2
sg10
V/mnt/disks/datasets/musdb18/test/Skelpolu - Resurrection.stem_bass.wav
p703
sg12
I395
sg13
I44100
sbg4
(g5
g6
NtRp704
(dp705
g9
I2
sg10
V/mnt/disks/datasets/musdb18/test/Skelpolu - Resurrection.stem_drums.wav
p706
sg12
I395
sg13
I44100
sbg4
(g5
g6
NtRp707
(dp708
g9
I2
sg10
V/mnt/disks/datasets/musdb18/test/Skelpolu - Resurrection.stem_other.wav
p709
sg12
I395
sg13
I44100
sbg4
(g5
g6
NtRp710
(dp711
g9
I2
sg10
V/mnt/disks/datasets/musdb18/test/Skelpolu - Resurrection.stem_vocals.wav
p712
sg12
I395
sg13
I44100
sbtp713
a(g4
(g5
g6
NtRp714
(dp715
g9
I2
sg10
V/mnt/disks/datasets/musdb18/test/Speak Softly - Broken Man.stem_mix.wav
p716
sg12
I252
sg13
I44100
sbg4
(g5
g6
NtRp717
(dp718
g9
I2
sg10
V/mnt/disks/datasets/musdb18/test/Speak Softly - Broken Man.stem_accompaniment.wav
p719
sg12
I252
sg13
I44100
sbg4
(g5
g6
NtRp720
(dp721
g9
I2
sg10
V/mnt/disks/datasets/musdb18/test/Speak Softly - Broken Man.stem_bass.wav
p722
sg12
I252
sg13
I44100
sbg4
(g5
g6
NtRp723
(dp724
g9
I2
sg10
V/mnt/disks/datasets/musdb18/test/Speak Softly - Broken Man.stem_drums.wav
p725
sg12
I252
sg13
I44100
sbg4
(g5
g6
NtRp726
(dp727
g9
I2
sg10
V/mnt/disks/datasets/musdb18/test/Speak Softly - Broken Man.stem_other.wav
p728
sg12
I252
sg13
I44100
sbg4
(g5
g6
NtRp729
(dp730
g9
I2
sg10
V/mnt/disks/datasets/musdb18/test/Speak Softly - Broken Man.stem_vocals.wav
p731
sg12
I252
sg13
I44100
sbtp732
a(g4
(g5
g6
NtRp733
(dp734
g9
I2
sg10
V/mnt/disks/datasets/musdb18/test/Speak Softly - Like Horses.stem_mix.wav
p735
sg12
I312
sg13
I44100
sbg4
(g5
g6
NtRp736
(dp737
g9
I2
sg10
V/mnt/disks/datasets/musdb18/test/Speak Softly - Like Horses.stem_accompaniment.wav
p738
sg12
I312
sg13
I44100
sbg4
(g5
g6
NtRp739
(dp740
g9
I2
sg10
V/mnt/disks/datasets/musdb18/test/Speak Softly - Like Horses.stem_bass.wav
p741
sg12
I312
sg13
I44100
sbg4
(g5
g6
NtRp742
(dp743
g9
I2
sg10
V/mnt/disks/datasets/musdb18/test/Speak Softly - Like Horses.stem_drums.wav
p744
sg12
I312
sg13
I44100
sbg4
(g5
g6
NtRp745
(dp746
g9
I2
sg10
V/mnt/disks/datasets/musdb18/test/Speak Softly - Like Horses.stem_other.wav
p747
sg12
I312
sg13
I44100
sbg4
(g5
g6
NtRp748
(dp749
g9
I2
sg10
V/mnt/disks/datasets/musdb18/test/Speak Softly - Like Horses.stem_vocals.wav
p750
sg12
I312
sg13
I44100
sbtp751
a(g4
(g5
g6
NtRp752
(dp753
g9
I2
sg10
V/mnt/disks/datasets/musdb18/test/The Doppler Shift - Atrophy.stem_mix.wav
p754
sg12
I331
sg13
I44100
sbg4
(g5
g6
NtRp755
(dp756
g9
I2
sg10
V/mnt/disks/datasets/musdb18/test/The Doppler Shift - Atrophy.stem_accompaniment.wav
p757
sg12
I331
sg13
I44100
sbg4
(g5
g6
NtRp758
(dp759
g9
I2
sg10
V/mnt/disks/datasets/musdb18/test/The Doppler Shift - Atrophy.stem_bass.wav
p760
sg12
I331
sg13
I44100
sbg4
(g5
g6
NtRp761
(dp762
g9
I2
sg10
V/mnt/disks/datasets/musdb18/test/The Doppler Shift - Atrophy.stem_drums.wav
p763
sg12
I331
sg13
I44100
sbg4
(g5
g6
NtRp764
(dp765
g9
I2
sg10
V/mnt/disks/datasets/musdb18/test/The Doppler Shift - Atrophy.stem_other.wav
p766
sg12
I331
sg13
I44100
sbg4
(g5
g6
NtRp767
(dp768
g9
I2
sg10
V/mnt/disks/datasets/musdb18/test/The Doppler Shift - Atrophy.stem_vocals.wav
p769
sg12
I331
sg13
I44100
sbtp770
a(g4
(g5
g6
NtRp771
(dp772
g9
I2
sg10
V/mnt/disks/datasets/musdb18/test/The Easton Ellises (Baumi) - SDRNR.stem_mix.wav
p773
sg12
I234
sg13
I44100
sbg4
(g5
g6
NtRp774
(dp775
g9
I2
sg10
V/mnt/disks/datasets/musdb18/test/The Easton Ellises (Baumi) - SDRNR.stem_accompaniment.wav
p776
sg12
I234
sg13
I44100
sbg4
(g5
g6
NtRp777
(dp778
g9
I2
sg10
V/mnt/disks/datasets/musdb18/test/The Easton Ellises (Baumi) - SDRNR.stem_bass.wav
p779
sg12
I234
sg13
I44100
sbg4
(g5
g6
NtRp780
(dp781
g9
I2
sg10
V/mnt/disks/datasets/musdb18/test/The Easton Ellises (Baumi) - SDRNR.stem_drums.wav
p782
sg12
I234
sg13
I44100
sbg4
(g5
g6
NtRp783
(dp784
g9
I2
sg10
V/mnt/disks/datasets/musdb18/test/The Easton Ellises (Baumi) - SDRNR.stem_other.wav
p785
sg12
I234
sg13
I44100
sbg4
(g5
g6
NtRp786
(dp787
g9
I2
sg10
V/mnt/disks/datasets/musdb18/test/The Easton Ellises (Baumi) - SDRNR.stem_vocals.wav
p788
sg12
I234
sg13
I44100
sbtp789
a(g4
(g5
g6
NtRp790
(dp791
g9
I2
sg10
V/mnt/disks/datasets/musdb18/test/The Easton Ellises - Falcon 69.stem_mix.wav
p792
sg12
I246
sg13
I44100
sbg4
(g5
g6
NtRp793
(dp794
g9
I2
sg10
V/mnt/disks/datasets/musdb18/test/The Easton Ellises - Falcon 69.stem_accompaniment.wav
p795
sg12
I246
sg13
I44100
sbg4
(g5
g6
NtRp796
(dp797
g9
I2
sg10
V/mnt/disks/datasets/musdb18/test/The Easton Ellises - Falcon 69.stem_bass.wav
p798
sg12
I246
sg13
I44100
sbg4
(g5
g6
NtRp799
(dp800
g9
I2
sg10
V/mnt/disks/datasets/musdb18/test/The Easton Ellises - Falcon 69.stem_drums.wav
p801
sg12
I246
sg13
I44100
sbg4
(g5
g6
NtRp802
(dp803
g9
I2
sg10
V/mnt/disks/datasets/musdb18/test/The Easton Ellises - Falcon 69.stem_other.wav
p804
sg12
I246
sg13
I44100
sbg4
(g5
g6
NtRp805
(dp806
g9
I2
sg10
V/mnt/disks/datasets/musdb18/test/The Easton Ellises - Falcon 69.stem_vocals.wav
p807
sg12
I246
sg13
I44100
sbtp808
a(g4
(g5
g6
NtRp809
(dp810
g9
I2
sg10
V/mnt/disks/datasets/musdb18/test/The Long Wait - Dark Horses.stem_mix.wav
p811
sg12
I305
sg13
I44100
sbg4
(g5
g6
NtRp812
(dp813
g9
I2
sg10
V/mnt/disks/datasets/musdb18/test/The Long Wait - Dark Horses.stem_accompaniment.wav
p814
sg12
I305
sg13
I44100
sbg4
(g5
g6
NtRp815
(dp816
g9
I2
sg10
V/mnt/disks/datasets/musdb18/test/The Long Wait - Dark Horses.stem_bass.wav
p817
sg12
I305
sg13
I44100
sbg4
(g5
g6
NtRp818
(dp819
g9
I2
sg10
V/mnt/disks/datasets/musdb18/test/The Long Wait - Dark Horses.stem_drums.wav
p820
sg12
I305
sg13
I44100
sbg4
(g5
g6
NtRp821
(dp822
g9
I2
sg10
V/mnt/disks/datasets/musdb18/test/The Long Wait - Dark Horses.stem_other.wav
p823
sg12
I305
sg13
I44100
sbg4
(g5
g6
NtRp824
(dp825
g9
I2
sg10
V/mnt/disks/datasets/musdb18/test/The Long Wait - Dark Horses.stem_vocals.wav
p826
sg12
I305
sg13
I44100
sbtp827
a(g4
(g5
g6
NtRp828
(dp829
g9
I2
sg10
V/mnt/disks/datasets/musdb18/test/The Mountaineering Club - Mallory.stem_mix.wav
p830
sg12
I244
sg13
I44100
sbg4
(g5
g6
NtRp831
(dp832
g9
I2
sg10
V/mnt/disks/datasets/musdb18/test/The Mountaineering Club - Mallory.stem_accompaniment.wav
p833
sg12
I244
sg13
I44100
sbg4
(g5
g6
NtRp834
(dp835
g9
I2
sg10
V/mnt/disks/datasets/musdb18/test/The Mountaineering Club - Mallory.stem_bass.wav
p836
sg12
I244
sg13
I44100
sbg4
(g5
g6
NtRp837
(dp838
g9
I2
sg10
V/mnt/disks/datasets/musdb18/test/The Mountaineering Club - Mallory.stem_drums.wav
p839
sg12
I244
sg13
I44100
sbg4
(g5
g6
NtRp840
(dp841
g9
I2
sg10
V/mnt/disks/datasets/musdb18/test/The Mountaineering Club - Mallory.stem_other.wav
p842
sg12
I244
sg13
I44100
sbg4
(g5
g6
NtRp843
(dp844
g9
I2
sg10
V/mnt/disks/datasets/musdb18/test/The Mountaineering Club - Mallory.stem_vocals.wav
p845
sg12
I244
sg13
I44100
sbtp846
a(g4
(g5
g6
NtRp847
(dp848
g9
I2
sg10
V/mnt/disks/datasets/musdb18/test/The Sunshine Garcia Band - For I Am The Moon.stem_mix.wav
p849
sg12
I320
sg13
I44100
sbg4
(g5
g6
NtRp850
(dp851
g9
I2
sg10
V/mnt/disks/datasets/musdb18/test/The Sunshine Garcia Band - For I Am The Moon.stem_accompaniment.wav
p852
sg12
I320
sg13
I44100
sbg4
(g5
g6
NtRp853
(dp854
g9
I2
sg10
V/mnt/disks/datasets/musdb18/test/The Sunshine Garcia Band - For I Am The Moon.stem_bass.wav
p855
sg12
I320
sg13
I44100
sbg4
(g5
g6
NtRp856
(dp857
g9
I2
sg10
V/mnt/disks/datasets/musdb18/test/The Sunshine Garcia Band - For I Am The Moon.stem_drums.wav
p858
sg12
I320
sg13
I44100
sbg4
(g5
g6
NtRp859
(dp860
g9
I2
sg10
V/mnt/disks/datasets/musdb18/test/The Sunshine Garcia Band - For I Am The Moon.stem_other.wav
p861
sg12
I320
sg13
I44100
sbg4
(g5
g6
NtRp862
(dp863
g9
I2
sg10
V/mnt/disks/datasets/musdb18/test/The Sunshine Garcia Band - For I Am The Moon.stem_vocals.wav
p864
sg12
I320
sg13
I44100
sbtp865
a(g4
(g5
g6
NtRp866
(dp867
g9
I2
sg10
V/mnt/disks/datasets/musdb18/test/Timboz - Pony.stem_mix.wav
p868
sg12
I252
sg13
I44100
sbg4
(g5
g6
NtRp869
(dp870
g9
I2
sg10
V/mnt/disks/datasets/musdb18/test/Timboz - Pony.stem_accompaniment.wav
p871
sg12
I252
sg13
I44100
sbg4
(g5
g6
NtRp872
(dp873
g9
I2
sg10
V/mnt/disks/datasets/musdb18/test/Timboz - Pony.stem_bass.wav
p874
sg12
I252
sg13
I44100
sbg4
(g5
g6
NtRp875
(dp876
g9
I2
sg10
V/mnt/disks/datasets/musdb18/test/Timboz - Pony.stem_drums.wav
p877
sg12
I252
sg13
I44100
sbg4
(g5
g6
NtRp878
(dp879
g9
I2
sg10
V/mnt/disks/datasets/musdb18/test/Timboz - Pony.stem_other.wav
p880
sg12
I252
sg13
I44100
sbg4
(g5
g6
NtRp881
(dp882
g9
I2
sg10
V/mnt/disks/datasets/musdb18/test/Timboz - Pony.stem_vocals.wav
p883
sg12
I252
sg13
I44100
sbtp884
a(g4
(g5
g6
NtRp885
(dp886
g9
I2
sg10
V/mnt/disks/datasets/musdb18/test/Tom McKenzie - Directions.stem_mix.wav
p887
sg12
I175
sg13
I44100
sbg4
(g5
g6
NtRp888
(dp889
g9
I2
sg10
V/mnt/disks/datasets/musdb18/test/Tom McKenzie - Directions.stem_accompaniment.wav
p890
sg12
I175
sg13
I44100
sbg4
(g5
g6
NtRp891
(dp892
g9
I2
sg10
V/mnt/disks/datasets/musdb18/test/Tom McKenzie - Directions.stem_bass.wav
p893
sg12
I175
sg13
I44100
sbg4
(g5
g6
NtRp894
(dp895
g9
I2
sg10
V/mnt/disks/datasets/musdb18/test/Tom McKenzie - Directions.stem_drums.wav
p896
sg12
I175
sg13
I44100
sbg4
(g5
g6
NtRp897
(dp898
g9
I2
sg10
V/mnt/disks/datasets/musdb18/test/Tom McKenzie - Directions.stem_other.wav
p899
sg12
I175
sg13
I44100
sbg4
(g5
g6
NtRp900
(dp901
g9
I2
sg10
V/mnt/disks/datasets/musdb18/test/Tom McKenzie - Directions.stem_vocals.wav
p902
sg12
I175
sg13
I44100
sbtp903
a(g4
(g5
g6
NtRp904
(dp905
g9
I2
sg10
V/mnt/disks/datasets/musdb18/test/Triviul feat. The Fiend - Widow.stem_mix.wav
p906
sg12
I234
sg13
I44100
sbg4
(g5
g6
NtRp907
(dp908
g9
I2
sg10
V/mnt/disks/datasets/musdb18/test/Triviul feat. The Fiend - Widow.stem_accompaniment.wav
p909
sg12
I234
sg13
I44100
sbg4
(g5
g6
NtRp910
(dp911
g9
I2
sg10
V/mnt/disks/datasets/musdb18/test/Triviul feat. The Fiend - Widow.stem_bass.wav
p912
sg12
I234
sg13
I44100
sbg4
(g5
g6
NtRp913
(dp914
g9
I2
sg10
V/mnt/disks/datasets/musdb18/test/Triviul feat. The Fiend - Widow.stem_drums.wav
p915
sg12
I234
sg13
I44100
sbg4
(g5
g6
NtRp916
(dp917
g9
I2
sg10
V/mnt/disks/datasets/musdb18/test/Triviul feat. The Fiend - Widow.stem_other.wav
p918
sg12
I234
sg13
I44100
sbg4
(g5
g6
NtRp919
(dp920
g9
I2
sg10
V/mnt/disks/datasets/musdb18/test/Triviul feat. The Fiend - Widow.stem_vocals.wav
p921
sg12
I234
sg13
I44100
sbtp922
a(g4
(g5
g6
NtRp923
(dp924
g9
I2
sg10
V/mnt/disks/datasets/musdb18/test/We Fell From The Sky - Not You.stem_mix.wav
p925
sg12
I207
sg13
I44100
sbg4
(g5
g6
NtRp926
(dp927
g9
I2
sg10
V/mnt/disks/datasets/musdb18/test/We Fell From The Sky - Not You.stem_accompaniment.wav
p928
sg12
I207
sg13
I44100
sbg4
(g5
g6
NtRp929
(dp930
g9
I2
sg10
V/mnt/disks/datasets/musdb18/test/We Fell From The Sky - Not You.stem_bass.wav
p931
sg12
I207
sg13
I44100
sbg4
(g5
g6
NtRp932
(dp933
g9
I2
sg10
V/mnt/disks/datasets/musdb18/test/We Fell From The Sky - Not You.stem_drums.wav
p934
sg12
I207
sg13
I44100
sbg4
(g5
g6
NtRp935
(dp936
g9
I2
sg10
V/mnt/disks/datasets/musdb18/test/We Fell From The Sky - Not You.stem_other.wav
p937
sg12
I207
sg13
I44100
sbg4
(g5
g6
NtRp938
(dp939
g9
I2
sg10
V/mnt/disks/datasets/musdb18/test/We Fell From The Sky - Not You.stem_vocals.wav
p940
sg12
I207
sg13
I44100
sbtp941
a(g4
(g5
g6
NtRp942
(dp943
g9
I2
sg10
V/mnt/disks/datasets/musdb18/test/Zeno - Signs.stem_mix.wav
p944
sg12
I234
sg13
I44100
sbg4
(g5
g6
NtRp945
(dp946
g9
I2
sg10
V/mnt/disks/datasets/musdb18/test/Zeno - Signs.stem_accompaniment.wav
p947
sg12
I234
sg13
I44100
sbg4
(g5
g6
NtRp948
(dp949
g9
I2
sg10
V/mnt/disks/datasets/musdb18/test/Zeno - Signs.stem_bass.wav
p950
sg12
I234
sg13
I44100
sbg4
(g5
g6
NtRp951
(dp952
g9
I2
sg10
V/mnt/disks/datasets/musdb18/test/Zeno - Signs.stem_drums.wav
p953
sg12
I234
sg13
I44100
sbg4
(g5
g6
NtRp954
(dp955
g9
I2
sg10
V/mnt/disks/datasets/musdb18/test/Zeno - Signs.stem_other.wav
p956
sg12
I234
sg13
I44100
sbg4
(g5
g6
NtRp957
(dp958
g9
I2
sg10
V/mnt/disks/datasets/musdb18/test/Zeno - Signs.stem_vocals.wav
p959
sg12
I234
sg13
I44100
sbtp960
asS'train_sup'
p961
(lp962
(g4
(g5
g6
NtRp963
(dp964
g9
I2
sg10
V/mnt/disks/datasets/musdb18/train/A Classic Education - NightOwl.stem_mix.wav
p965
sg12
I171
sg13
I44100
sbg4
(g5
g6
NtRp966
(dp967
g9
I2
sg10
V/mnt/disks/datasets/musdb18/train/A Classic Education - NightOwl.stem_accompaniment.wav
p968
sg12
I171
sg13
I44100
sbg4
(g5
g6
NtRp969
(dp970
g9
I2
sg10
V/mnt/disks/datasets/musdb18/train/A Classic Education - NightOwl.stem_bass.wav
p971
sg12
I171
sg13
I44100
sbg4
(g5
g6
NtRp972
(dp973
g9
I2
sg10
V/mnt/disks/datasets/musdb18/train/A Classic Education - NightOwl.stem_drums.wav
p974
sg12
I171
sg13
I44100
sbg4
(g5
g6
NtRp975
(dp976
g9
I2
sg10
V/mnt/disks/datasets/musdb18/train/A Classic Education - NightOwl.stem_other.wav
p977
sg12
I171
sg13
I44100
sbg4
(g5
g6
NtRp978
(dp979
g9
I2
sg10
V/mnt/disks/datasets/musdb18/train/A Classic Education - NightOwl.stem_vocals.wav
p980
sg12
I171
sg13
I44100
sbtp981
a(g4
(g5
g6
NtRp982
(dp983
g9
I2
sg10
V/mnt/disks/datasets/musdb18/train/ANiMAL - Clinic A.stem_mix.wav
p984
sg12
I237
sg13
I44100
sbg4
(g5
g6
NtRp985
(dp986
g9
I2
sg10
V/mnt/disks/datasets/musdb18/train/ANiMAL - Clinic A.stem_accompaniment.wav
p987
sg12
I237
sg13
I44100
sbg4
(g5
g6
NtRp988
(dp989
g9
I2
sg10
V/mnt/disks/datasets/musdb18/train/ANiMAL - Clinic A.stem_bass.wav
p990
sg12
I237
sg13
I44100
sbg4
(g5
g6
NtRp991
(dp992
g9
I2
sg10
V/mnt/disks/datasets/musdb18/train/ANiMAL - Clinic A.stem_drums.wav
p993
sg12
I237
sg13
I44100
sbg4
(g5
g6
NtRp994
(dp995
g9
I2
sg10
V/mnt/disks/datasets/musdb18/train/ANiMAL - Clinic A.stem_other.wav
p996
sg12
I237
sg13
I44100
sbg4
(g5
g6
NtRp997
(dp998
g9
I2
sg10
V/mnt/disks/datasets/musdb18/train/ANiMAL - Clinic A.stem_vocals.wav
p999
sg12
I237
sg13
I44100
sbtp1000
a(g4
(g5
g6
NtRp1001
(dp1002
g9
I2
sg10
V/mnt/disks/datasets/musdb18/train/ANiMAL - Rockshow.stem_mix.wav
p1003
sg12
I165
sg13
I44100
sbg4
(g5
g6
NtRp1004
(dp1005
g9
I2
sg10
V/mnt/disks/datasets/musdb18/train/ANiMAL - Rockshow.stem_accompaniment.wav
p1006
sg12
I165
sg13
I44100
sbg4
(g5
g6
NtRp1007
(dp1008
g9
I2
sg10
V/mnt/disks/datasets/musdb18/train/ANiMAL - Rockshow.stem_bass.wav
p1009
sg12
I165
sg13
I44100
sbg4
(g5
g6
NtRp1010
(dp1011
g9
I2
sg10
V/mnt/disks/datasets/musdb18/train/ANiMAL - Rockshow.stem_drums.wav
p1012
sg12
I165
sg13
I44100
sbg4
(g5
g6
NtRp1013
(dp1014
g9
I2
sg10
V/mnt/disks/datasets/musdb18/train/ANiMAL - Rockshow.stem_other.wav
p1015
sg12
I165
sg13
I44100
sbg4
(g5
g6
NtRp1016
(dp1017
g9
I2
sg10
V/mnt/disks/datasets/musdb18/train/ANiMAL - Rockshow.stem_vocals.wav
p1018
sg12
I165
sg13
I44100
sbtp1019
a(g4
(g5
g6
NtRp1020
(dp1021
g9
I2
sg10
V/mnt/disks/datasets/musdb18/train/Actions - Devil's Words.stem_mix.wav
p1022
sg12
I196
sg13
I44100
sbg4
(g5
g6
NtRp1023
(dp1024
g9
I2
sg10
V/mnt/disks/datasets/musdb18/train/Actions - Devil's Words.stem_accompaniment.wav
p1025
sg12
I196
sg13
I44100
sbg4
(g5
g6
NtRp1026
(dp1027
g9
I2
sg10
V/mnt/disks/datasets/musdb18/train/Actions - Devil's Words.stem_bass.wav
p1028
sg12
I196
sg13
I44100
sbg4
(g5
g6
NtRp1029
(dp1030
g9
I2
sg10
V/mnt/disks/datasets/musdb18/train/Actions - Devil's Words.stem_drums.wav
p1031
sg12
I196
sg13
I44100
sbg4
(g5
g6
NtRp1032
(dp1033
g9
I2
sg10
V/mnt/disks/datasets/musdb18/train/Actions - Devil's Words.stem_other.wav
p1034
sg12
I196
sg13
I44100
sbg4
(g5
g6
NtRp1035
(dp1036
g9
I2
sg10
V/mnt/disks/datasets/musdb18/train/Actions - Devil's Words.stem_vocals.wav
p1037
sg12
I196
sg13
I44100
sbtp1038
a(g4
(g5
g6
NtRp1039
(dp1040
g9
I2
sg10
V/mnt/disks/datasets/musdb18/train/Actions - One Minute Smile.stem_mix.wav
p1041
sg12
I163
sg13
I44100
sbg4
(g5
g6
NtRp1042
(dp1043
g9
I2
sg10
V/mnt/disks/datasets/musdb18/train/Actions - One Minute Smile.stem_accompaniment.wav
p1044
sg12
I163
sg13
I44100
sbg4
(g5
g6
NtRp1045
(dp1046
g9
I2
sg10
V/mnt/disks/datasets/musdb18/train/Actions - One Minute Smile.stem_bass.wav
p1047
sg12
I163
sg13
I44100
sbg4
(g5
g6
NtRp1048
(dp1049
g9
I2
sg10
V/mnt/disks/datasets/musdb18/train/Actions - One Minute Smile.stem_drums.wav
p1050
sg12
I163
sg13
I44100
sbg4
(g5
g6
NtRp1051
(dp1052
g9
I2
sg10
V/mnt/disks/datasets/musdb18/train/Actions - One Minute Smile.stem_other.wav
p1053
sg12
I163
sg13
I44100
sbg4
(g5
g6
NtRp1054
(dp1055
g9
I2
sg10
V/mnt/disks/datasets/musdb18/train/Actions - One Minute Smile.stem_vocals.wav
p1056
sg12
I163
sg13
I44100
sbtp1057
a(g4
(g5
g6
NtRp1058
(dp1059
g9
I2
sg10
V/mnt/disks/datasets/musdb18/train/Actions - South Of The Water.stem_mix.wav
p1060
sg12
I176
sg13
I44100
sbg4
(g5
g6
NtRp1061
(dp1062
g9
I2
sg10
V/mnt/disks/datasets/musdb18/train/Actions - South Of The Water.stem_accompaniment.wav
p1063
sg12
I176
sg13
I44100
sbg4
(g5
g6
NtRp1064
(dp1065
g9
I2
sg10
V/mnt/disks/datasets/musdb18/train/Actions - South Of The Water.stem_bass.wav
p1066
sg12
I176
sg13
I44100
sbg4
(g5
g6
NtRp1067
(dp1068
g9
I2
sg10
V/mnt/disks/datasets/musdb18/train/Actions - South Of The Water.stem_drums.wav
p1069
sg12
I176
sg13
I44100
sbg4
(g5
g6
NtRp1070
(dp1071
g9
I2
sg10
V/mnt/disks/datasets/musdb18/train/Actions - South Of The Water.stem_other.wav
p1072
sg12
I176
sg13
I44100
sbg4
(g5
g6
NtRp1073
(dp1074
g9
I2
sg10
V/mnt/disks/datasets/musdb18/train/Actions - South Of The Water.stem_vocals.wav
p1075
sg12
I176
sg13
I44100
sbtp1076
a(g4
(g5
g6
NtRp1077
(dp1078
g9
I2
sg10
V/mnt/disks/datasets/musdb18/train/Aimee Norwich - Child.stem_mix.wav
p1079
sg12
I189
sg13
I44100
sbg4
(g5
g6
NtRp1080
(dp1081
g9
I2
sg10
V/mnt/disks/datasets/musdb18/train/Aimee Norwich - Child.stem_accompaniment.wav
p1082
sg12
I189
sg13
I44100
sbg4
(g5
g6
NtRp1083
(dp1084
g9
I2
sg10
V/mnt/disks/datasets/musdb18/train/Aimee Norwich - Child.stem_bass.wav
p1085
sg12
I189
sg13
I44100
sbg4
(g5
g6
NtRp1086
(dp1087
g9
I2
sg10
V/mnt/disks/datasets/musdb18/train/Aimee Norwich - Child.stem_drums.wav
p1088
sg12
I189
sg13
I44100
sbg4
(g5
g6
NtRp1089
(dp1090
g9
I2
sg10
V/mnt/disks/datasets/musdb18/train/Aimee Norwich - Child.stem_other.wav
p1091
sg12
I189
sg13
I44100
sbg4
(g5
g6
NtRp1092
(dp1093
g9
I2
sg10
V/mnt/disks/datasets/musdb18/train/Aimee Norwich - Child.stem_vocals.wav
p1094
sg12
I189
sg13
I44100
sbtp1095
a(g4
(g5
g6
NtRp1096
(dp1097
g9
I2
sg10
V/mnt/disks/datasets/musdb18/train/Alexander Ross - Goodbye Bolero.stem_mix.wav
p1098
sg12
I418
sg13
I44100
sbg4
(g5
g6
NtRp1099
(dp1100
g9
I2
sg10
V/mnt/disks/datasets/musdb18/train/Alexander Ross - Goodbye Bolero.stem_accompaniment.wav
p1101
sg12
I418
sg13
I44100
sbg4
(g5
g6
NtRp1102
(dp1103
g9
I2
sg10
V/mnt/disks/datasets/musdb18/train/Alexander Ross - Goodbye Bolero.stem_bass.wav
p1104
sg12
I418
sg13
I44100
sbg4
(g5
g6
NtRp1105
(dp1106
g9
I2
sg10
V/mnt/disks/datasets/musdb18/train/Alexander Ross - Goodbye Bolero.stem_drums.wav
p1107
sg12
I418
sg13
I44100
sbg4
(g5
g6
NtRp1108
(dp1109
g9
I2
sg10
V/mnt/disks/datasets/musdb18/train/Alexander Ross - Goodbye Bolero.stem_other.wav
p1110
sg12
I418
sg13
I44100
sbg4
(g5
g6
NtRp1111
(dp1112
g9
I2
sg10
V/mnt/disks/datasets/musdb18/train/Alexander Ross - Goodbye Bolero.stem_vocals.wav
p1113
sg12
I418
sg13
I44100
sbtp1114
a(g4
(g5
g6
NtRp1115
(dp1116
g9
I2
sg10
V/mnt/disks/datasets/musdb18/train/Alexander Ross - Velvet Curtain.stem_mix.wav
p1117
sg12
I514
sg13
I44100
sbg4
(g5
g6
NtRp1118
(dp1119
g9
I2
sg10
V/mnt/disks/datasets/musdb18/train/Alexander Ross - Velvet Curtain.stem_accompaniment.wav
p1120
sg12
I514
sg13
I44100
sbg4
(g5
g6
NtRp1121
(dp1122
g9
I2
sg10
V/mnt/disks/datasets/musdb18/train/Alexander Ross - Velvet Curtain.stem_bass.wav
p1123
sg12
I514
sg13
I44100
sbg4
(g5
g6
NtRp1124
(dp1125
g9
I2
sg10
V/mnt/disks/datasets/musdb18/train/Alexander Ross - Velvet Curtain.stem_drums.wav
p1126
sg12
I514
sg13
I44100
sbg4
(g5
g6
NtRp1127
(dp1128
g9
I2
sg10
V/mnt/disks/datasets/musdb18/train/Alexander Ross - Velvet Curtain.stem_other.wav
p1129
sg12
I514
sg13
I44100
sbg4
(g5
g6
NtRp1130
(dp1131
g9
I2
sg10
V/mnt/disks/datasets/musdb18/train/Alexander Ross - Velvet Curtain.stem_vocals.wav
p1132
sg12
I514
sg13
I44100
sbtp1133
a(g4
(g5
g6
NtRp1134
(dp1135
g9
I2
sg10
V/mnt/disks/datasets/musdb18/train/Auctioneer - Our Future Faces.stem_mix.wav
p1136
sg12
I207
sg13
I44100
sbg4
(g5
g6
NtRp1137
(dp1138
g9
I2
sg10
V/mnt/disks/datasets/musdb18/train/Auctioneer - Our Future Faces.stem_accompaniment.wav
p1139
sg12
I207
sg13
I44100
sbg4
(g5
g6
NtRp1140
(dp1141
g9
I2
sg10
V/mnt/disks/datasets/musdb18/train/Auctioneer - Our Future Faces.stem_bass.wav
p1142
sg12
I207
sg13
I44100
sbg4
(g5
g6
NtRp1143
(dp1144
g9
I2
sg10
V/mnt/disks/datasets/musdb18/train/Auctioneer - Our Future Faces.stem_drums.wav
p1145
sg12
I207
sg13
I44100
sbg4
(g5
g6
NtRp1146
(dp1147
g9
I2
sg10
V/mnt/disks/datasets/musdb18/train/Auctioneer - Our Future Faces.stem_other.wav
p1148
sg12
I207
sg13
I44100
sbg4
(g5
g6
NtRp1149
(dp1150
g9
I2
sg10
V/mnt/disks/datasets/musdb18/train/Auctioneer - Our Future Faces.stem_vocals.wav
p1151
sg12
I207
sg13
I44100
sbtp1152
a(g4
(g5
g6
NtRp1153
(dp1154
g9
I2
sg10
V/mnt/disks/datasets/musdb18/train/AvaLuna - Waterduct.stem_mix.wav
p1155
sg12
I259
sg13
I44100
sbg4
(g5
g6
NtRp1156
(dp1157
g9
I2
sg10
V/mnt/disks/datasets/musdb18/train/AvaLuna - Waterduct.stem_accompaniment.wav
p1158
sg12
I259
sg13
I44100
sbg4
(g5
g6
NtRp1159
(dp1160
g9
I2
sg10
V/mnt/disks/datasets/musdb18/train/AvaLuna - Waterduct.stem_bass.wav
p1161
sg12
I259
sg13
I44100
sbg4
(g5
g6
NtRp1162
(dp1163
g9
I2
sg10
V/mnt/disks/datasets/musdb18/train/AvaLuna - Waterduct.stem_drums.wav
p1164
sg12
I259
sg13
I44100
sbg4
(g5
g6
NtRp1165
(dp1166
g9
I2
sg10
V/mnt/disks/datasets/musdb18/train/AvaLuna - Waterduct.stem_other.wav
p1167
sg12
I259
sg13
I44100
sbg4
(g5
g6
NtRp1168
(dp1169
g9
I2
sg10
V/mnt/disks/datasets/musdb18/train/AvaLuna - Waterduct.stem_vocals.wav
p1170
sg12
I259
sg13
I44100
sbtp1171
a(g4
(g5
g6
NtRp1172
(dp1173
g9
I2
sg10
V/mnt/disks/datasets/musdb18/train/BigTroubles - Phantom.stem_mix.wav
p1174
sg12
I146
sg13
I44100
sbg4
(g5
g6
NtRp1175
(dp1176
g9
I2
sg10
V/mnt/disks/datasets/musdb18/train/BigTroubles - Phantom.stem_accompaniment.wav
p1177
sg12
I146
sg13
I44100
sbg4
(g5
g6
NtRp1178
(dp1179
g9
I2
sg10
V/mnt/disks/datasets/musdb18/train/BigTroubles - Phantom.stem_bass.wav
p1180
sg12
I146
sg13
I44100
sbg4
(g5
g6
NtRp1181
(dp1182
g9
I2
sg10
V/mnt/disks/datasets/musdb18/train/BigTroubles - Phantom.stem_drums.wav
p1183
sg12
I146
sg13
I44100
sbg4
(g5
g6
NtRp1184
(dp1185
g9
I2
sg10
V/mnt/disks/datasets/musdb18/train/BigTroubles - Phantom.stem_other.wav
p1186
sg12
I146
sg13
I44100
sbg4
(g5
g6
NtRp1187
(dp1188
g9
I2
sg10
V/mnt/disks/datasets/musdb18/train/BigTroubles - Phantom.stem_vocals.wav
p1189
sg12
I146
sg13
I44100
sbtp1190
a(g4
(g5
g6
NtRp1191
(dp1192
g9
I2
sg10
V/mnt/disks/datasets/musdb18/train/Black Bloc - If You Want Success.stem_mix.wav
p1193
sg12
I398
sg13
I44100
sbg4
(g5
g6
NtRp1194
(dp1195
g9
I2
sg10
V/mnt/disks/datasets/musdb18/train/Black Bloc - If You Want Success.stem_accompaniment.wav
p1196
sg12
I398
sg13
I44100
sbg4
(g5
g6
NtRp1197
(dp1198
g9
I2
sg10
V/mnt/disks/datasets/musdb18/train/Black Bloc - If You Want Success.stem_bass.wav
p1199
sg12
I398
sg13
I44100
sbg4
(g5
g6
NtRp1200
(dp1201
g9
I2
sg10
V/mnt/disks/datasets/musdb18/train/Black Bloc - If You Want Success.stem_drums.wav
p1202
sg12
I398
sg13
I44100
sbg4
(g5
g6
NtRp1203
(dp1204
g9
I2
sg10
V/mnt/disks/datasets/musdb18/train/Black Bloc - If You Want Success.stem_other.wav
p1205
sg12
I398
sg13
I44100
sbg4
(g5
g6
NtRp1206
(dp1207
g9
I2
sg10
V/mnt/disks/datasets/musdb18/train/Black Bloc - If You Want Success.stem_vocals.wav
p1208
sg12
I398
sg13
I44100
sbtp1209
a(g4
(g5
g6
NtRp1210
(dp1211
g9
I2
sg10
V/mnt/disks/datasets/musdb18/train/Chris Durban - Celebrate.stem_mix.wav
p1212
sg12
I301
sg13
I44100
sbg4
(g5
g6
NtRp1213
(dp1214
g9
I2
sg10
V/mnt/disks/datasets/musdb18/train/Chris Durban - Celebrate.stem_accompaniment.wav
p1215
sg12
I301
sg13
I44100
sbg4
(g5
g6
NtRp1216
(dp1217
g9
I2
sg10
V/mnt/disks/datasets/musdb18/train/Chris Durban - Celebrate.stem_bass.wav
p1218
sg12
I301
sg13
I44100
sbg4
(g5
g6
NtRp1219
(dp1220
g9
I2
sg10
V/mnt/disks/datasets/musdb18/train/Chris Durban - Celebrate.stem_drums.wav
p1221
sg12
I301
sg13
I44100
sbg4
(g5
g6
NtRp1222
(dp1223
g9
I2
sg10
V/mnt/disks/datasets/musdb18/train/Chris Durban - Celebrate.stem_other.wav
p1224
sg12
I301
sg13
I44100
sbg4
(g5
g6
NtRp1225
(dp1226
g9
I2
sg10
V/mnt/disks/datasets/musdb18/train/Chris Durban - Celebrate.stem_vocals.wav
p1227
sg12
I301
sg13
I44100
sbtp1228
a(g4
(g5
g6
NtRp1229
(dp1230
g9
I2
sg10
V/mnt/disks/datasets/musdb18/train/Clara Berry And Wooldog - Air Traffic.stem_mix.wav
p1231
sg12
I173
sg13
I44100
sbg4
(g5
g6
NtRp1232
(dp1233
g9
I2
sg10
V/mnt/disks/datasets/musdb18/train/Clara Berry And Wooldog - Air Traffic.stem_accompaniment.wav
p1234
sg12
I173
sg13
I44100
sbg4
(g5
g6
NtRp1235
(dp1236
g9
I2
sg10
V/mnt/disks/datasets/musdb18/train/Clara Berry And Wooldog - Air Traffic.stem_bass.wav
p1237
sg12
I173
sg13
I44100
sbg4
(g5
g6
NtRp1238
(dp1239
g9
I2
sg10
V/mnt/disks/datasets/musdb18/train/Clara Berry And Wooldog - Air Traffic.stem_drums.wav
p1240
sg12
I173
sg13
I44100
sbg4
(g5
g6
NtRp1241
(dp1242
g9
I2
sg10
V/mnt/disks/datasets/musdb18/train/Clara Berry And Wooldog - Air Traffic.stem_other.wav
p1243
sg12
I173
sg13
I44100
sbg4
(g5
g6
NtRp1244
(dp1245
g9
I2
sg10
V/mnt/disks/datasets/musdb18/train/Clara Berry And Wooldog - Air Traffic.stem_vocals.wav
p1246
sg12
I173
sg13
I44100
sbtp1247
a(g4
(g5
g6
NtRp1248
(dp1249
g9
I2
sg10
V/mnt/disks/datasets/musdb18/train/Clara Berry And Wooldog - Stella.stem_mix.wav
p1250
sg12
I195
sg13
I44100
sbg4
(g5
g6
NtRp1251
(dp1252
g9
I2
sg10
V/mnt/disks/datasets/musdb18/train/Clara Berry And Wooldog - Stella.stem_accompaniment.wav
p1253
sg12
I195
sg13
I44100
sbg4
(g5
g6
NtRp1254
(dp1255
g9
I2
sg10
V/mnt/disks/datasets/musdb18/train/Clara Berry And Wooldog - Stella.stem_bass.wav
p1256
sg12
I195
sg13
I44100
sbg4
(g5
g6
NtRp1257
(dp1258
g9
I2
sg10
V/mnt/disks/datasets/musdb18/train/Clara Berry And Wooldog - Stella.stem_drums.wav
p1259
sg12
I195
sg13
I44100
sbg4
(g5
g6
NtRp1260
(dp1261
g9
I2
sg10
V/mnt/disks/datasets/musdb18/train/Clara Berry And Wooldog - Stella.stem_other.wav
p1262
sg12
I195
sg13
I44100
sbg4
(g5
g6
NtRp1263
(dp1264
g9
I2
sg10
V/mnt/disks/datasets/musdb18/train/Clara Berry And Wooldog - Stella.stem_vocals.wav
p1265
sg12
I195
sg13
I44100
sbtp1266
a(g4
(g5
g6
NtRp1267
(dp1268
g9
I2
sg10
V/mnt/disks/datasets/musdb18/train/Clara Berry And Wooldog - Waltz For My Victims.stem_mix.wav
p1269
sg12
I175
sg13
I44100
sbg4
(g5
g6
NtRp1270
(dp1271
g9
I2
sg10
V/mnt/disks/datasets/musdb18/train/Clara Berry And Wooldog - Waltz For My Victims.stem_accompaniment.wav
p1272
sg12
I175
sg13
I44100
sbg4
(g5
g6
NtRp1273
(dp1274
g9
I2
sg10
V/mnt/disks/datasets/musdb18/train/Clara Berry And Wooldog - Waltz For My Victims.stem_bass.wav
p1275
sg12
I175
sg13
I44100
sbg4
(g5
g6
NtRp1276
(dp1277
g9
I2
sg10
V/mnt/disks/datasets/musdb18/train/Clara Berry And Wooldog - Waltz For My Victims.stem_drums.wav
p1278
sg12
I175
sg13
I44100
sbg4
(g5
g6
NtRp1279
(dp1280
g9
I2
sg10
V/mnt/disks/datasets/musdb18/train/Clara Berry And Wooldog - Waltz For My Victims.stem_other.wav
p1281
sg12
I175
sg13
I44100
sbg4
(g5
g6
NtRp1282
(dp1283
g9
I2
sg10
V/mnt/disks/datasets/musdb18/train/Clara Berry And Wooldog - Waltz For My Victims.stem_vocals.wav
p1284
sg12
I175
sg13
I44100
sbtp1285
a(g4
(g5
g6
NtRp1286
(dp1287
g9
I2
sg10
V/mnt/disks/datasets/musdb18/train/Cnoc An Tursa - Bannockburn.stem_mix.wav
p1288
sg12
I294
sg13
I44100
sbg4
(g5
g6
NtRp1289
(dp1290
g9
I2
sg10
V/mnt/disks/datasets/musdb18/train/Cnoc An Tursa - Bannockburn.stem_accompaniment.wav
p1291
sg12
I294
sg13
I44100
sbg4
(g5
g6
NtRp1292
(dp1293
g9
I2
sg10
V/mnt/disks/datasets/musdb18/train/Cnoc An Tursa - Bannockburn.stem_bass.wav
p1294
sg12
I294
sg13
I44100
sbg4
(g5
g6
NtRp1295
(dp1296
g9
I2
sg10
V/mnt/disks/datasets/musdb18/train/Cnoc An Tursa - Bannockburn.stem_drums.wav
p1297
sg12
I294
sg13
I44100
sbg4
(g5
g6
NtRp1298
(dp1299
g9
I2
sg10
V/mnt/disks/datasets/musdb18/train/Cnoc An Tursa - Bannockburn.stem_other.wav
p1300
sg12
I294
sg13
I44100
sbg4
(g5
g6
NtRp1301
(dp1302
g9
I2
sg10
V/mnt/disks/datasets/musdb18/train/Cnoc An Tursa - Bannockburn.stem_vocals.wav
p1303
sg12
I294
sg13
I44100
sbtp1304
a(g4
(g5
g6
NtRp1305
(dp1306
g9
I2
sg10
V/mnt/disks/datasets/musdb18/train/Creepoid - OldTree.stem_mix.wav
p1307
sg12
I302
sg13
I44100
sbg4
(g5
g6
NtRp1308
(dp1309
g9
I2
sg10
V/mnt/disks/datasets/musdb18/train/Creepoid - OldTree.stem_accompaniment.wav
p1310
sg12
I302
sg13
I44100
sbg4
(g5
g6
NtRp1311
(dp1312
g9
I2
sg10
V/mnt/disks/datasets/musdb18/train/Creepoid - OldTree.stem_bass.wav
p1313
sg12
I302
sg13
I44100
sbg4
(g5
g6
NtRp1314
(dp1315
g9
I2
sg10
V/mnt/disks/datasets/musdb18/train/Creepoid - OldTree.stem_drums.wav
p1316
sg12
I302
sg13
I44100
sbg4
(g5
g6
NtRp1317
(dp1318
g9
I2
sg10
V/mnt/disks/datasets/musdb18/train/Creepoid - OldTree.stem_other.wav
p1319
sg12
I302
sg13
I44100
sbg4
(g5
g6
NtRp1320
(dp1321
g9
I2
sg10
V/mnt/disks/datasets/musdb18/train/Creepoid - OldTree.stem_vocals.wav
p1322
sg12
I302
sg13
I44100
sbtp1323
a(g4
(g5
g6
NtRp1324
(dp1325
g9
I2
sg10
V/mnt/disks/datasets/musdb18/train/Dark Ride - Burning Bridges.stem_mix.wav
p1326
sg12
I232
sg13
I44100
sbg4
(g5
g6
NtRp1327
(dp1328
g9
I2
sg10
V/mnt/disks/datasets/musdb18/train/Dark Ride - Burning Bridges.stem_accompaniment.wav
p1329
sg12
I232
sg13
I44100
sbg4
(g5
g6
NtRp1330
(dp1331
g9
I2
sg10
V/mnt/disks/datasets/musdb18/train/Dark Ride - Burning Bridges.stem_bass.wav
p1332
sg12
I232
sg13
I44100
sbg4
(g5
g6
NtRp1333
(dp1334
g9
I2
sg10
V/mnt/disks/datasets/musdb18/train/Dark Ride - Burning Bridges.stem_drums.wav
p1335
sg12
I232
sg13
I44100
sbg4
(g5
g6
NtRp1336
(dp1337
g9
I2
sg10
V/mnt/disks/datasets/musdb18/train/Dark Ride - Burning Bridges.stem_other.wav
p1338
sg12
I232
sg13
I44100
sbg4
(g5
g6
NtRp1339
(dp1340
g9
I2
sg10
V/mnt/disks/datasets/musdb18/train/Dark Ride - Burning Bridges.stem_vocals.wav
p1341
sg12
I232
sg13
I44100
sbtp1342
a(g4
(g5
g6
NtRp1343
(dp1344
g9
I2
sg10
V/mnt/disks/datasets/musdb18/train/Dreamers Of The Ghetto - Heavy Love.stem_mix.wav
p1345
sg12
I294
sg13
I44100
sbg4
(g5
g6
NtRp1346
(dp1347
g9
I2
sg10
V/mnt/disks/datasets/musdb18/train/Dreamers Of The Ghetto - Heavy Love.stem_accompaniment.wav
p1348
sg12
I294
sg13
I44100
sbg4
(g5
g6
NtRp1349
(dp1350
g9
I2
sg10
V/mnt/disks/datasets/musdb18/train/Dreamers Of The Ghetto - Heavy Love.stem_bass.wav
p1351
sg12
I294
sg13
I44100
sbg4
(g5
g6
NtRp1352
(dp1353
g9
I2
sg10
V/mnt/disks/datasets/musdb18/train/Dreamers Of The Ghetto - Heavy Love.stem_drums.wav
p1354
sg12
I294
sg13
I44100
sbg4
(g5
g6
NtRp1355
(dp1356
g9
I2
sg10
V/mnt/disks/datasets/musdb18/train/Dreamers Of The Ghetto - Heavy Love.stem_other.wav
p1357
sg12
I294
sg13
I44100
sbg4
(g5
g6
NtRp1358
(dp1359
g9
I2
sg10
V/mnt/disks/datasets/musdb18/train/Dreamers Of The Ghetto - Heavy Love.stem_vocals.wav
p1360
sg12
I294
sg13
I44100
sbtp1361
a(g4
(g5
g6
NtRp1362
(dp1363
g9
I2
sg10
V/mnt/disks/datasets/musdb18/train/Drumtracks - Ghost Bitch.stem_mix.wav
p1364
sg12
I356
sg13
I44100
sbg4
(g5
g6
NtRp1365
(dp1366
g9
I2
sg10
V/mnt/disks/datasets/musdb18/train/Drumtracks - Ghost Bitch.stem_accompaniment.wav
p1367
sg12
I356
sg13
I44100
sbg4
(g5
g6
NtRp1368
(dp1369
g9
I2
sg10
V/mnt/disks/datasets/musdb18/train/Drumtracks - Ghost Bitch.stem_bass.wav
p1370
sg12
I356
sg13
I44100
sbg4
(g5
g6
NtRp1371
(dp1372
g9
I2
sg10
V/mnt/disks/datasets/musdb18/train/Drumtracks - Ghost Bitch.stem_drums.wav
p1373
sg12
I356
sg13
I44100
sbg4
(g5
g6
NtRp1374
(dp1375
g9
I2
sg10
V/mnt/disks/datasets/musdb18/train/Drumtracks - Ghost Bitch.stem_other.wav
p1376
sg12
I356
sg13
I44100
sbg4
(g5
g6
NtRp1377
(dp1378
g9
I2
sg10
V/mnt/disks/datasets/musdb18/train/Drumtracks - Ghost Bitch.stem_vocals.wav
p1379
sg12
I356
sg13
I44100
sbtp1380
a(g4
(g5
g6
NtRp1381
(dp1382
g9
I2
sg10
V/mnt/disks/datasets/musdb18/train/Faces On Film - Waiting For Ga.stem_mix.wav
p1383
sg12
I257
sg13
I44100
sbg4
(g5
g6
NtRp1384
(dp1385
g9
I2
sg10
V/mnt/disks/datasets/musdb18/train/Faces On Film - Waiting For Ga.stem_accompaniment.wav
p1386
sg12
I257
sg13
I44100
sbg4
(g5
g6
NtRp1387
(dp1388
g9
I2
sg10
V/mnt/disks/datasets/musdb18/train/Faces On Film - Waiting For Ga.stem_bass.wav
p1389
sg12
I257
sg13
I44100
sbg4
(g5
g6
NtRp1390
(dp1391
g9
I2
sg10
V/mnt/disks/datasets/musdb18/train/Faces On Film - Waiting For Ga.stem_drums.wav
p1392
sg12
I257
sg13
I44100
sbg4
(g5
g6
NtRp1393
(dp1394
g9
I2
sg10
V/mnt/disks/datasets/musdb18/train/Faces On Film - Waiting For Ga.stem_other.wav
p1395
sg12
I257
sg13
I44100
sbg4
(g5
g6
NtRp1396
(dp1397
g9
I2
sg10
V/mnt/disks/datasets/musdb18/train/Faces On Film - Waiting For Ga.stem_vocals.wav
p1398
sg12
I257
sg13
I44100
sbtp1399
a(g4
(g5
g6
NtRp1400
(dp1401
g9
I2
sg10
V/mnt/disks/datasets/musdb18/train/Fergessen - Back From The Start.stem_mix.wav
p1402
sg12
I168
sg13
I44100
sbg4
(g5
g6
NtRp1403
(dp1404
g9
I2
sg10
V/mnt/disks/datasets/musdb18/train/Fergessen - Back From The Start.stem_accompaniment.wav
p1405
sg12
I168
sg13
I44100
sbg4
(g5
g6
NtRp1406
(dp1407
g9
I2
sg10
V/mnt/disks/datasets/musdb18/train/Fergessen - Back From The Start.stem_bass.wav
p1408
sg12
I168
sg13
I44100
sbg4
(g5
g6
NtRp1409
(dp1410
g9
I2
sg10
V/mnt/disks/datasets/musdb18/train/Fergessen - Back From The Start.stem_drums.wav
p1411
sg12
I168
sg13
I44100
sbg4
(g5
g6
NtRp1412
(dp1413
g9
I2
sg10
V/mnt/disks/datasets/musdb18/train/Fergessen - Back From The Start.stem_other.wav
p1414
sg12
I168
sg13
I44100
sbg4
(g5
g6
NtRp1415
(dp1416
g9
I2
sg10
V/mnt/disks/datasets/musdb18/train/Fergessen - Back From The Start.stem_vocals.wav
p1417
sg12
I168
sg13
I44100
sbtp1418
a(g4
(g5
g6
NtRp1419
(dp1420
g9
I2
sg10
V/mnt/disks/datasets/musdb18/train/Fergessen - Nos Palpitants.stem_mix.wav
p1421
sg12
I198
sg13
I44100
sbg4
(g5
g6
NtRp1422
(dp1423
g9
I2
sg10
V/mnt/disks/datasets/musdb18/train/Fergessen - Nos Palpitants.stem_accompaniment.wav
p1424
sg12
I198
sg13
I44100
sbg4
(g5
g6
NtRp1425
(dp1426
g9
I2
sg10
V/mnt/disks/datasets/musdb18/train/Fergessen - Nos Palpitants.stem_bass.wav
p1427
sg12
I198
sg13
I44100
sbg4
(g5
g6
NtRp1428
(dp1429
g9
I2
sg10
V/mnt/disks/datasets/musdb18/train/Fergessen - Nos Palpitants.stem_drums.wav
p1430
sg12
I198
sg13
I44100
sbg4
(g5
g6
NtRp1431
(dp1432
g9
I2
sg10
V/mnt/disks/datasets/musdb18/train/Fergessen - Nos Palpitants.stem_other.wav
p1433
sg12
I198
sg13
I44100
sbg4
(g5
g6
NtRp1434
(dp1435
g9
I2
sg10
V/mnt/disks/datasets/musdb18/train/Fergessen - Nos Palpitants.stem_vocals.wav
p1436
sg12
I198
sg13
I44100
sbtp1437
a(g4
(g5
g6
NtRp1438
(dp1439
g9
I2
sg10
V/mnt/disks/datasets/musdb18/train/Flags - 54.stem_mix.wav
p1440
sg12
I315
sg13
I44100
sbg4
(g5
g6
NtRp1441
(dp1442
g9
I2
sg10
V/mnt/disks/datasets/musdb18/train/Flags - 54.stem_accompaniment.wav
p1443
sg12
I315
sg13
I44100
sbg4
(g5
g6
NtRp1444
(dp1445
g9
I2
sg10
V/mnt/disks/datasets/musdb18/train/Flags - 54.stem_bass.wav
p1446
sg12
I315
sg13
I44100
sbg4
(g5
g6
NtRp1447
(dp1448
g9
I2
sg10
V/mnt/disks/datasets/musdb18/train/Flags - 54.stem_drums.wav
p1449
sg12
I315
sg13
I44100
sbg4
(g5
g6
NtRp1450
(dp1451
g9
I2
sg10
V/mnt/disks/datasets/musdb18/train/Flags - 54.stem_other.wav
p1452
sg12
I315
sg13
I44100
sbg4
(g5
g6
NtRp1453
(dp1454
g9
I2
sg10
V/mnt/disks/datasets/musdb18/train/Flags - 54.stem_vocals.wav
p1455
sg12
I315
sg13
I44100
sbtp1456
a(g4
(g5
g6
NtRp1457
(dp1458
g9
I2
sg10
V/mnt/disks/datasets/musdb18/train/Grants - PunchDrunk.stem_mix.wav
p1459
sg12
I204
sg13
I44100
sbg4
(g5
g6
NtRp1460
(dp1461
g9
I2
sg10
V/mnt/disks/datasets/musdb18/train/Grants - PunchDrunk.stem_accompaniment.wav
p1462
sg12
I204
sg13
I44100
sbg4
(g5
g6
NtRp1463
(dp1464
g9
I2
sg10
V/mnt/disks/datasets/musdb18/train/Grants - PunchDrunk.stem_bass.wav
p1465
sg12
I204
sg13
I44100
sbg4
(g5
g6
NtRp1466
(dp1467
g9
I2
sg10
V/mnt/disks/datasets/musdb18/train/Grants - PunchDrunk.stem_drums.wav
p1468
sg12
I204
sg13
I44100
sbg4
(g5
g6
NtRp1469
(dp1470
g9
I2
sg10
V/mnt/disks/datasets/musdb18/train/Grants - PunchDrunk.stem_other.wav
p1471
sg12
I204
sg13
I44100
sbg4
(g5
g6
NtRp1472
(dp1473
g9
I2
sg10
V/mnt/disks/datasets/musdb18/train/Grants - PunchDrunk.stem_vocals.wav
p1474
sg12
I204
sg13
I44100
sbtp1475
a(g4
(g5
g6
NtRp1476
(dp1477
g9
I2
sg10
V/mnt/disks/datasets/musdb18/train/Helado Negro - Mitad Del Mundo.stem_mix.wav
p1478
sg12
I181
sg13
I44100
sbg4
(g5
g6
NtRp1479
(dp1480
g9
I2
sg10
V/mnt/disks/datasets/musdb18/train/Helado Negro - Mitad Del Mundo.stem_accompaniment.wav
p1481
sg12
I181
sg13
I44100
sbg4
(g5
g6
NtRp1482
(dp1483
g9
I2
sg10
V/mnt/disks/datasets/musdb18/train/Helado Negro - Mitad Del Mundo.stem_bass.wav
p1484
sg12
I181
sg13
I44100
sbg4
(g5
g6
NtRp1485
(dp1486
g9
I2
sg10
V/mnt/disks/datasets/musdb18/train/Helado Negro - Mitad Del Mundo.stem_drums.wav
p1487
sg12
I181
sg13
I44100
sbg4
(g5
g6
NtRp1488
(dp1489
g9
I2
sg10
V/mnt/disks/datasets/musdb18/train/Helado Negro - Mitad Del Mundo.stem_other.wav
p1490
sg12
I181
sg13
I44100
sbg4
(g5
g6
NtRp1491
(dp1492
g9
I2
sg10
V/mnt/disks/datasets/musdb18/train/Helado Negro - Mitad Del Mundo.stem_vocals.wav
p1493
sg12
I181
sg13
I44100
sbtp1494
a(g4
(g5
g6
NtRp1495
(dp1496
g9
I2
sg10
V/mnt/disks/datasets/musdb18/train/Hezekiah Jones - Borrowed Heart.stem_mix.wav
p1497
sg12
I241
sg13
I44100
sbg4
(g5
g6
NtRp1498
(dp1499
g9
I2
sg10
V/mnt/disks/datasets/musdb18/train/Hezekiah Jones - Borrowed Heart.stem_accompaniment.wav
p1500
sg12
I241
sg13
I44100
sbg4
(g5
g6
NtRp1501
(dp1502
g9
I2
sg10
V/mnt/disks/datasets/musdb18/train/Hezekiah Jones - Borrowed Heart.stem_bass.wav
p1503
sg12
I241
sg13
I44100
sbg4
(g5
g6
NtRp1504
(dp1505
g9
I2
sg10
V/mnt/disks/datasets/musdb18/train/Hezekiah Jones - Borrowed Heart.stem_drums.wav
p1506
sg12
I241
sg13
I44100
sbg4
(g5
g6
NtRp1507
(dp1508
g9
I2
sg10
V/mnt/disks/datasets/musdb18/train/Hezekiah Jones - Borrowed Heart.stem_other.wav
p1509
sg12
I241
sg13
I44100
sbg4
(g5
g6
NtRp1510
(dp1511
g9
I2
sg10
V/mnt/disks/datasets/musdb18/train/Hezekiah Jones - Borrowed Heart.stem_vocals.wav
p1512
sg12
I241
sg13
I44100
sbtp1513
a(g4
(g5
g6
NtRp1514
(dp1515
g9
I2
sg10
V/mnt/disks/datasets/musdb18/train/Hop Along - Sister Cities.stem_mix.wav
p1516
sg12
I283
sg13
I44100
sbg4
(g5
g6
NtRp1517
(dp1518
g9
I2
sg10
V/mnt/disks/datasets/musdb18/train/Hop Along - Sister Cities.stem_accompaniment.wav
p1519
sg12
I283
sg13
I44100
sbg4
(g5
g6
NtRp1520
(dp1521
g9
I2
sg10
V/mnt/disks/datasets/musdb18/train/Hop Along - Sister Cities.stem_bass.wav
p1522
sg12
I283
sg13
I44100
sbg4
(g5
g6
NtRp1523
(dp1524
g9
I2
sg10
V/mnt/disks/datasets/musdb18/train/Hop Along - Sister Cities.stem_drums.wav
p1525
sg12
I283
sg13
I44100
sbg4
(g5
g6
NtRp1526
(dp1527
g9
I2
sg10
V/mnt/disks/datasets/musdb18/train/Hop Along - Sister Cities.stem_other.wav
p1528
sg12
I283
sg13
I44100
sbg4
(g5
g6
NtRp1529
(dp1530
g9
I2
sg10
V/mnt/disks/datasets/musdb18/train/Hop Along - Sister Cities.stem_vocals.wav
p1531
sg12
I283
sg13
I44100
sbtp1532
a(g4
(g5
g6
NtRp1533
(dp1534
g9
I2
sg10
V/mnt/disks/datasets/musdb18/train/Invisible Familiars - Disturbing Wildlife.stem_mix.wav
p1535
sg12
I218
sg13
I44100
sbg4
(g5
g6
NtRp1536
(dp1537
g9
I2
sg10
V/mnt/disks/datasets/musdb18/train/Invisible Familiars - Disturbing Wildlife.stem_accompaniment.wav
p1538
sg12
I218
sg13
I44100
sbg4
(g5
g6
NtRp1539
(dp1540
g9
I2
sg10
V/mnt/disks/datasets/musdb18/train/Invisible Familiars - Disturbing Wildlife.stem_bass.wav
p1541
sg12
I218
sg13
I44100
sbg4
(g5
g6
NtRp1542
(dp1543
g9
I2
sg10
V/mnt/disks/datasets/musdb18/train/Invisible Familiars - Disturbing Wildlife.stem_drums.wav
p1544
sg12
I218
sg13
I44100
sbg4
(g5
g6
NtRp1545
(dp1546
g9
I2
sg10
V/mnt/disks/datasets/musdb18/train/Invisible Familiars - Disturbing Wildlife.stem_other.wav
p1547
sg12
I218
sg13
I44100
sbg4
(g5
g6
NtRp1548
(dp1549
g9
I2
sg10
V/mnt/disks/datasets/musdb18/train/Invisible Familiars - Disturbing Wildlife.stem_vocals.wav
p1550
sg12
I218
sg13
I44100
sbtp1551
a(g4
(g5
g6
NtRp1552
(dp1553
g9
I2
sg10
V/mnt/disks/datasets/musdb18/train/James May - All Souls Moon.stem_mix.wav
p1554
sg12
I220
sg13
I44100
sbg4
(g5
g6
NtRp1555
(dp1556
g9
I2
sg10
V/mnt/disks/datasets/musdb18/train/James May - All Souls Moon.stem_accompaniment.wav
p1557
sg12
I220
sg13
I44100
sbg4
(g5
g6
NtRp1558
(dp1559
g9
I2
sg10
V/mnt/disks/datasets/musdb18/train/James May - All Souls Moon.stem_bass.wav
p1560
sg12
I220
sg13
I44100
sbg4
(g5
g6
NtRp1561
(dp1562
g9
I2
sg10
V/mnt/disks/datasets/musdb18/train/James May - All Souls Moon.stem_drums.wav
p1563
sg12
I220
sg13
I44100
sbg4
(g5
g6
NtRp1564
(dp1565
g9
I2
sg10
V/mnt/disks/datasets/musdb18/train/James May - All Souls Moon.stem_other.wav
p1566
sg12
I220
sg13
I44100
sbg4
(g5
g6
NtRp1567
(dp1568
g9
I2
sg10
V/mnt/disks/datasets/musdb18/train/James May - All Souls Moon.stem_vocals.wav
p1569
sg12
I220
sg13
I44100
sbtp1570
a(g4
(g5
g6
NtRp1571
(dp1572
g9
I2
sg10
V/mnt/disks/datasets/musdb18/train/James May - Dont Let Go.stem_mix.wav
p1573
sg12
I241
sg13
I44100
sbg4
(g5
g6
NtRp1574
(dp1575
g9
I2
sg10
V/mnt/disks/datasets/musdb18/train/James May - Dont Let Go.stem_accompaniment.wav
p1576
sg12
I241
sg13
I44100
sbg4
(g5
g6
NtRp1577
(dp1578
g9
I2
sg10
V/mnt/disks/datasets/musdb18/train/James May - Dont Let Go.stem_bass.wav
p1579
sg12
I241
sg13
I44100
sbg4
(g5
g6
NtRp1580
(dp1581
g9
I2
sg10
V/mnt/disks/datasets/musdb18/train/James May - Dont Let Go.stem_drums.wav
p1582
sg12
I241
sg13
I44100
sbg4
(g5
g6
NtRp1583
(dp1584
g9
I2
sg10
V/mnt/disks/datasets/musdb18/train/James May - Dont Let Go.stem_other.wav
p1585
sg12
I241
sg13
I44100
sbg4
(g5
g6
NtRp1586
(dp1587
g9
I2
sg10
V/mnt/disks/datasets/musdb18/train/James May - Dont Let Go.stem_vocals.wav
p1588
sg12
I241
sg13
I44100
sbtp1589
a(g4
(g5
g6
NtRp1590
(dp1591
g9
I2
sg10
V/mnt/disks/datasets/musdb18/train/James May - If You Say.stem_mix.wav
p1592
sg12
I258
sg13
I44100
sbg4
(g5
g6
NtRp1593
(dp1594
g9
I2
sg10
V/mnt/disks/datasets/musdb18/train/James May - If You Say.stem_accompaniment.wav
p1595
sg12
I258
sg13
I44100
sbg4
(g5
g6
NtRp1596
(dp1597
g9
I2
sg10
V/mnt/disks/datasets/musdb18/train/James May - If You Say.stem_bass.wav
p1598
sg12
I258
sg13
I44100
sbg4
(g5
g6
NtRp1599
(dp1600
g9
I2
sg10
V/mnt/disks/datasets/musdb18/train/James May - If You Say.stem_drums.wav
p1601
sg12
I258
sg13
I44100
sbg4
(g5
g6
NtRp1602
(dp1603
g9
I2
sg10
V/mnt/disks/datasets/musdb18/train/James May - If You Say.stem_other.wav
p1604
sg12
I258
sg13
I44100
sbg4
(g5
g6
NtRp1605
(dp1606
g9
I2
sg10
V/mnt/disks/datasets/musdb18/train/James May - If You Say.stem_vocals.wav
p1607
sg12
I258
sg13
I44100
sbtp1608
a(g4
(g5
g6
NtRp1609
(dp1610
g9
I2
sg10
V/mnt/disks/datasets/musdb18/train/James May - On The Line.stem_mix.wav
p1611
sg12
I256
sg13
I44100
sbg4
(g5
g6
NtRp1612
(dp1613
g9
I2
sg10
V/mnt/disks/datasets/musdb18/train/James May - On The Line.stem_accompaniment.wav
p1614
sg12
I256
sg13
I44100
sbg4
(g5
g6
NtRp1615
(dp1616
g9
I2
sg10
V/mnt/disks/datasets/musdb18/train/James May - On The Line.stem_bass.wav
p1617
sg12
I256
sg13
I44100
sbg4
(g5
g6
NtRp1618
(dp1619
g9
I2
sg10
V/mnt/disks/datasets/musdb18/train/James May - On The Line.stem_drums.wav
p1620
sg12
I256
sg13
I44100
sbg4
(g5
g6
NtRp1621
(dp1622
g9
I2
sg10
V/mnt/disks/datasets/musdb18/train/James May - On The Line.stem_other.wav
p1623
sg12
I256
sg13
I44100
sbg4
(g5
g6
NtRp1624
(dp1625
g9
I2
sg10
V/mnt/disks/datasets/musdb18/train/James May - On The Line.stem_vocals.wav
p1626
sg12
I256
sg13
I44100
sbtp1627
a(g4
(g5
g6
NtRp1628
(dp1629
g9
I2
sg10
V/mnt/disks/datasets/musdb18/train/Johnny Lokke - Whisper To A Scream.stem_mix.wav
p1630
sg12
I255
sg13
I44100
sbg4
(g5
g6
NtRp1631
(dp1632
g9
I2
sg10
V/mnt/disks/datasets/musdb18/train/Johnny Lokke - Whisper To A Scream.stem_accompaniment.wav
p1633
sg12
I255
sg13
I44100
sbg4
(g5
g6
NtRp1634
(dp1635
g9
I2
sg10
V/mnt/disks/datasets/musdb18/train/Johnny Lokke - Whisper To A Scream.stem_bass.wav
p1636
sg12
I255
sg13
I44100
sbg4
(g5
g6
NtRp1637
(dp1638
g9
I2
sg10
V/mnt/disks/datasets/musdb18/train/Johnny Lokke - Whisper To A Scream.stem_drums.wav
p1639
sg12
I255
sg13
I44100
sbg4
(g5
g6
NtRp1640
(dp1641
g9
I2
sg10
V/mnt/disks/datasets/musdb18/train/Johnny Lokke - Whisper To A Scream.stem_other.wav
p1642
sg12
I255
sg13
I44100
sbg4
(g5
g6
NtRp1643
(dp1644
g9
I2
sg10
V/mnt/disks/datasets/musdb18/train/Johnny Lokke - Whisper To A Scream.stem_vocals.wav
p1645
sg12
I255
sg13
I44100
sbtp1646
a(g4
(g5
g6
NtRp1647
(dp1648
g9
I2
sg10
V/mnt/disks/datasets/musdb18/train/Jokers, Jacks & Kings - Sea Of Leaves.stem_mix.wav
p1649
sg12
I191
sg13
I44100
sbg4
(g5
g6
NtRp1650
(dp1651
g9
I2
sg10
V/mnt/disks/datasets/musdb18/train/Jokers, Jacks & Kings - Sea Of Leaves.stem_accompaniment.wav
p1652
sg12
I191
sg13
I44100
sbg4
(g5
g6
NtRp1653
(dp1654
g9
I2
sg10
V/mnt/disks/datasets/musdb18/train/Jokers, Jacks & Kings - Sea Of Leaves.stem_bass.wav
p1655
sg12
I191
sg13
I44100
sbg4
(g5
g6
NtRp1656
(dp1657
g9
I2
sg10
V/mnt/disks/datasets/musdb18/train/Jokers, Jacks & Kings - Sea Of Leaves.stem_drums.wav
p1658
sg12
I191
sg13
I44100
sbg4
(g5
g6
NtRp1659
(dp1660
g9
I2
sg10
V/mnt/disks/datasets/musdb18/train/Jokers, Jacks & Kings - Sea Of Leaves.stem_other.wav
p1661
sg12
I191
sg13
I44100
sbg4
(g5
g6
NtRp1662
(dp1663
g9
I2
sg10
V/mnt/disks/datasets/musdb18/train/Jokers, Jacks & Kings - Sea Of Leaves.stem_vocals.wav
p1664
sg12
I191
sg13
I44100
sbtp1665
a(g4
(g5
g6
NtRp1666
(dp1667
g9
I2
sg10
V/mnt/disks/datasets/musdb18/train/Leaf - Come Around.stem_mix.wav
p1668
sg12
I264
sg13
I44100
sbg4
(g5
g6
NtRp1669
(dp1670
g9
I2
sg10
V/mnt/disks/datasets/musdb18/train/Leaf - Come Around.stem_accompaniment.wav
p1671
sg12
I264
sg13
I44100
sbg4
(g5
g6
NtRp1672
(dp1673
g9
I2
sg10
V/mnt/disks/datasets/musdb18/train/Leaf - Come Around.stem_bass.wav
p1674
sg12
I264
sg13
I44100
sbg4
(g5
g6
NtRp1675
(dp1676
g9
I2
sg10
V/mnt/disks/datasets/musdb18/train/Leaf - Come Around.stem_drums.wav
p1677
sg12
I264
sg13
I44100
sbg4
(g5
g6
NtRp1678
(dp1679
g9
I2
sg10
V/mnt/disks/datasets/musdb18/train/Leaf - Come Around.stem_other.wav
p1680
sg12
I264
sg13
I44100
sbg4
(g5
g6
NtRp1681
(dp1682
g9
I2
sg10
V/mnt/disks/datasets/musdb18/train/Leaf - Come Around.stem_vocals.wav
p1683
sg12
I264
sg13
I44100
sbtp1684
a(g4
(g5
g6
NtRp1685
(dp1686
g9
I2
sg10
V/mnt/disks/datasets/musdb18/train/Leaf - Wicked.stem_mix.wav
p1687
sg12
I190
sg13
I44100
sbg4
(g5
g6
NtRp1688
(dp1689
g9
I2
sg10
V/mnt/disks/datasets/musdb18/train/Leaf - Wicked.stem_accompaniment.wav
p1690
sg12
I190
sg13
I44100
sbg4
(g5
g6
NtRp1691
(dp1692
g9
I2
sg10
V/mnt/disks/datasets/musdb18/train/Leaf - Wicked.stem_bass.wav
p1693
sg12
I190
sg13
I44100
sbg4
(g5
g6
NtRp1694
(dp1695
g9
I2
sg10
V/mnt/disks/datasets/musdb18/train/Leaf - Wicked.stem_drums.wav
p1696
sg12
I190
sg13
I44100
sbg4
(g5
g6
NtRp1697
(dp1698
g9
I2
sg10
V/mnt/disks/datasets/musdb18/train/Leaf - Wicked.stem_other.wav
p1699
sg12
I190
sg13
I44100
sbg4
(g5
g6
NtRp1700
(dp1701
g9
I2
sg10
V/mnt/disks/datasets/musdb18/train/Leaf - Wicked.stem_vocals.wav
p1702
sg12
I190
sg13
I44100
sbtp1703
a(g4
(g5
g6
NtRp1704
(dp1705
g9
I2
sg10
V/mnt/disks/datasets/musdb18/train/Matthew Entwistle - Dont You Ever.stem_mix.wav
p1706
sg12
I113
sg13
I44100
sbg4
(g5
g6
NtRp1707
(dp1708
g9
I2
sg10
V/mnt/disks/datasets/musdb18/train/Matthew Entwistle - Dont You Ever.stem_accompaniment.wav
p1709
sg12
I113
sg13
I44100
sbg4
(g5
g6
NtRp1710
(dp1711
g9
I2
sg10
V/mnt/disks/datasets/musdb18/train/Matthew Entwistle - Dont You Ever.stem_bass.wav
p1712
sg12
I113
sg13
I44100
sbg4
(g5
g6
NtRp1713
(dp1714
g9
I2
sg10
V/mnt/disks/datasets/musdb18/train/Matthew Entwistle - Dont You Ever.stem_drums.wav
p1715
sg12
I113
sg13
I44100
sbg4
(g5
g6
NtRp1716
(dp1717
g9
I2
sg10
V/mnt/disks/datasets/musdb18/train/Matthew Entwistle - Dont You Ever.stem_other.wav
p1718
sg12
I113
sg13
I44100
sbg4
(g5
g6
NtRp1719
(dp1720
g9
I2
sg10
V/mnt/disks/datasets/musdb18/train/Matthew Entwistle - Dont You Ever.stem_vocals.wav
p1721
sg12
I113
sg13
I44100
sbtp1722
a(g4
(g5
g6
NtRp1723
(dp1724
g9
I2
sg10
V/mnt/disks/datasets/musdb18/train/Music Delta - 80s Rock.stem_mix.wav
p1725
sg12
I36
sg13
I44100
sbg4
(g5
g6
NtRp1726
(dp1727
g9
I2
sg10
V/mnt/disks/datasets/musdb18/train/Music Delta - 80s Rock.stem_accompaniment.wav
p1728
sg12
I36
sg13
I44100
sbg4
(g5
g6
NtRp1729
(dp1730
g9
I2
sg10
V/mnt/disks/datasets/musdb18/train/Music Delta - 80s Rock.stem_bass.wav
p1731
sg12
I36
sg13
I44100
sbg4
(g5
g6
NtRp1732
(dp1733
g9
I2
sg10
V/mnt/disks/datasets/musdb18/train/Music Delta - 80s Rock.stem_drums.wav
p1734
sg12
I36
sg13
I44100
sbg4
(g5
g6
NtRp1735
(dp1736
g9
I2
sg10
V/mnt/disks/datasets/musdb18/train/Music Delta - 80s Rock.stem_other.wav
p1737
sg12
I36
sg13
I44100
sbg4
(g5
g6
NtRp1738
(dp1739
g9
I2
sg10
V/mnt/disks/datasets/musdb18/train/Music Delta - 80s Rock.stem_vocals.wav
p1740
sg12
I36
sg13
I44100
sbtp1741
a(g4
(g5
g6
NtRp1742
(dp1743
g9
I2
sg10
V/mnt/disks/datasets/musdb18/train/Music Delta - Beatles.stem_mix.wav
p1744
sg12
I36
sg13
I44100
sbg4
(g5
g6
NtRp1745
(dp1746
g9
I2
sg10
V/mnt/disks/datasets/musdb18/train/Music Delta - Beatles.stem_accompaniment.wav
p1747
sg12
I36
sg13
I44100
sbg4
(g5
g6
NtRp1748
(dp1749
g9
I2
sg10
V/mnt/disks/datasets/musdb18/train/Music Delta - Beatles.stem_bass.wav
p1750
sg12
I36
sg13
I44100
sbg4
(g5
g6
NtRp1751
(dp1752
g9
I2
sg10
V/mnt/disks/datasets/musdb18/train/Music Delta - Beatles.stem_drums.wav
p1753
sg12
I36
sg13
I44100
sbg4
(g5
g6
NtRp1754
(dp1755
g9
I2
sg10
V/mnt/disks/datasets/musdb18/train/Music Delta - Beatles.stem_other.wav
p1756
sg12
I36
sg13
I44100
sbg4
(g5
g6
NtRp1757
(dp1758
g9
I2
sg10
V/mnt/disks/datasets/musdb18/train/Music Delta - Beatles.stem_vocals.wav
p1759
sg12
I36
sg13
I44100
sbtp1760
a(g4
(g5
g6
NtRp1761
(dp1762
g9
I2
sg10
V/mnt/disks/datasets/musdb18/train/Music Delta - Country1.stem_mix.wav
p1763
sg12
I34
sg13
I44100
sbg4
(g5
g6
NtRp1764
(dp1765
g9
I2
sg10
V/mnt/disks/datasets/musdb18/train/Music Delta - Country1.stem_accompaniment.wav
p1766
sg12
I34
sg13
I44100
sbg4
(g5
g6
NtRp1767
(dp1768
g9
I2
sg10
V/mnt/disks/datasets/musdb18/train/Music Delta - Country1.stem_bass.wav
p1769
sg12
I34
sg13
I44100
sbg4
(g5
g6
NtRp1770
(dp1771
g9
I2
sg10
V/mnt/disks/datasets/musdb18/train/Music Delta - Country1.stem_drums.wav
p1772
sg12
I34
sg13
I44100
sbg4
(g5
g6
NtRp1773
(dp1774
g9
I2
sg10
V/mnt/disks/datasets/musdb18/train/Music Delta - Country1.stem_other.wav
p1775
sg12
I34
sg13
I44100
sbg4
(g5
g6
NtRp1776
(dp1777
g9
I2
sg10
V/mnt/disks/datasets/musdb18/train/Music Delta - Country1.stem_vocals.wav
p1778
sg12
I34
sg13
I44100
sbtp1779
a(g4
(g5
g6
NtRp1780
(dp1781
g9
I2
sg10
V/mnt/disks/datasets/musdb18/train/Music Delta - Country2.stem_mix.wav
p1782
sg12
I17
sg13
I44100
sbg4
(g5
g6
NtRp1783
(dp1784
g9
I2
sg10
V/mnt/disks/datasets/musdb18/train/Music Delta - Country2.stem_accompaniment.wav
p1785
sg12
I17
sg13
I44100
sbg4
(g5
g6
NtRp1786
(dp1787
g9
I2
sg10
V/mnt/disks/datasets/musdb18/train/Music Delta - Country2.stem_bass.wav
p1788
sg12
I17
sg13
I44100
sbg4
(g5
g6
NtRp1789
(dp1790
g9
I2
sg10
V/mnt/disks/datasets/musdb18/train/Music Delta - Country2.stem_drums.wav
p1791
sg12
I17
sg13
I44100
sbg4
(g5
g6
NtRp1792
(dp1793
g9
I2
sg10
V/mnt/disks/datasets/musdb18/train/Music Delta - Country2.stem_other.wav
p1794
sg12
I17
sg13
I44100
sbg4
(g5
g6
NtRp1795
(dp1796
g9
I2
sg10
V/mnt/disks/datasets/musdb18/train/Music Delta - Country2.stem_vocals.wav
p1797
sg12
I17
sg13
I44100
sbtp1798
a(g4
(g5
g6
NtRp1799
(dp1800
g9
I2
sg10
V/mnt/disks/datasets/musdb18/train/Music Delta - Gospel.stem_mix.wav
p1801
sg12
I75
sg13
I44100
sbg4
(g5
g6
NtRp1802
(dp1803
g9
I2
sg10
V/mnt/disks/datasets/musdb18/train/Music Delta - Gospel.stem_accompaniment.wav
p1804
sg12
I75
sg13
I44100
sbg4
(g5
g6
NtRp1805
(dp1806
g9
I2
sg10
V/mnt/disks/datasets/musdb18/train/Music Delta - Gospel.stem_bass.wav
p1807
sg12
I75
sg13
I44100
sbg4
(g5
g6
NtRp1808
(dp1809
g9
I2
sg10
V/mnt/disks/datasets/musdb18/train/Music Delta - Gospel.stem_drums.wav
p1810
sg12
I75
sg13
I44100
sbg4
(g5
g6
NtRp1811
(dp1812
g9
I2
sg10
V/mnt/disks/datasets/musdb18/train/Music Delta - Gospel.stem_other.wav
p1813
sg12
I75
sg13
I44100
sbg4
(g5
g6
NtRp1814
(dp1815
g9
I2
sg10
V/mnt/disks/datasets/musdb18/train/Music Delta - Gospel.stem_vocals.wav
p1816
sg12
I75
sg13
I44100
sbtp1817
a(g4
(g5
g6
NtRp1818
(dp1819
g9
I2
sg10
V/mnt/disks/datasets/musdb18/train/Music Delta - Grunge.stem_mix.wav
p1820
sg12
I41
sg13
I44100
sbg4
(g5
g6
NtRp1821
(dp1822
g9
I2
sg10
V/mnt/disks/datasets/musdb18/train/Music Delta - Grunge.stem_accompaniment.wav
p1823
sg12
I41
sg13
I44100
sbg4
(g5
g6
NtRp1824
(dp1825
g9
I2
sg10
V/mnt/disks/datasets/musdb18/train/Music Delta - Grunge.stem_bass.wav
p1826
sg12
I41
sg13
I44100
sbg4
(g5
g6
NtRp1827
(dp1828
g9
I2
sg10
V/mnt/disks/datasets/musdb18/train/Music Delta - Grunge.stem_drums.wav
p1829
sg12
I41
sg13
I44100
sbg4
(g5
g6
NtRp1830
(dp1831
g9
I2
sg10
V/mnt/disks/datasets/musdb18/train/Music Delta - Grunge.stem_other.wav
p1832
sg12
I41
sg13
I44100
sbg4
(g5
g6
NtRp1833
(dp1834
g9
I2
sg10
V/mnt/disks/datasets/musdb18/train/Music Delta - Grunge.stem_vocals.wav
p1835
sg12
I41
sg13
I44100
sbtp1836
a(g4
(g5
g6
NtRp1837
(dp1838
g9
I2
sg10
V/mnt/disks/datasets/musdb18/train/Music Delta - Hendrix.stem_mix.wav
p1839
sg12
I19
sg13
I44100
sbg4
(g5
g6
NtRp1840
(dp1841
g9
I2
sg10
V/mnt/disks/datasets/musdb18/train/Music Delta - Hendrix.stem_accompaniment.wav
p1842
sg12
I19
sg13
I44100
sbg4
(g5
g6
NtRp1843
(dp1844
g9
I2
sg10
V/mnt/disks/datasets/musdb18/train/Music Delta - Hendrix.stem_bass.wav
p1845
sg12
I19
sg13
I44100
sbg4
(g5
g6
NtRp1846
(dp1847
g9
I2
sg10
V/mnt/disks/datasets/musdb18/train/Music Delta - Hendrix.stem_drums.wav
p1848
sg12
I19
sg13
I44100
sbg4
(g5
g6
NtRp1849
(dp1850
g9
I2
sg10
V/mnt/disks/datasets/musdb18/train/Music Delta - Hendrix.stem_other.wav
p1851
sg12
I19
sg13
I44100
sbg4
(g5
g6
NtRp1852
(dp1853
g9
I2
sg10
V/mnt/disks/datasets/musdb18/train/Music Delta - Hendrix.stem_vocals.wav
p1854
sg12
I19
sg13
I44100
sbtp1855
a(g4
(g5
g6
NtRp1856
(dp1857
g9
I2
sg10
V/mnt/disks/datasets/musdb18/train/Music Delta - Reggae.stem_mix.wav
p1858
sg12
I17
sg13
I44100
sbg4
(g5
g6
NtRp1859
(dp1860
g9
I2
sg10
V/mnt/disks/datasets/musdb18/train/Music Delta - Reggae.stem_accompaniment.wav
p1861
sg12
I17
sg13
I44100
sbg4
(g5
g6
NtRp1862
(dp1863
g9
I2
sg10
V/mnt/disks/datasets/musdb18/train/Music Delta - Reggae.stem_bass.wav
p1864
sg12
I17
sg13
I44100
sbg4
(g5
g6
NtRp1865
(dp1866
g9
I2
sg10
V/mnt/disks/datasets/musdb18/train/Music Delta - Reggae.stem_drums.wav
p1867
sg12
I17
sg13
I44100
sbg4
(g5
g6
NtRp1868
(dp1869
g9
I2
sg10
V/mnt/disks/datasets/musdb18/train/Music Delta - Reggae.stem_other.wav
p1870
sg12
I17
sg13
I44100
sbg4
(g5
g6
NtRp1871
(dp1872
g9
I2
sg10
V/mnt/disks/datasets/musdb18/train/Music Delta - Reggae.stem_vocals.wav
p1873
sg12
I17
sg13
I44100
sbtp1874
a(g4
(g5
g6
NtRp1875
(dp1876
g9
I2
sg10
V/mnt/disks/datasets/musdb18/train/Music Delta - Rock.stem_mix.wav
p1877
sg12
I12
sg13
I44100
sbg4
(g5
g6
NtRp1878
(dp1879
g9
I2
sg10
V/mnt/disks/datasets/musdb18/train/Music Delta - Rock.stem_accompaniment.wav
p1880
sg12
I12
sg13
I44100
sbg4
(g5
g6
NtRp1881
(dp1882
g9
I2
sg10
V/mnt/disks/datasets/musdb18/train/Music Delta - Rock.stem_bass.wav
p1883
sg12
I12
sg13
I44100
sbg4
(g5
g6
NtRp1884
(dp1885
g9
I2
sg10
V/mnt/disks/datasets/musdb18/train/Music Delta - Rock.stem_drums.wav
p1886
sg12
I12
sg13
I44100
sbg4
(g5
g6
NtRp1887
(dp1888
g9
I2
sg10
V/mnt/disks/datasets/musdb18/train/Music Delta - Rock.stem_other.wav
p1889
sg12
I12
sg13
I44100
sbg4
(g5
g6
NtRp1890
(dp1891
g9
I2
sg10
V/mnt/disks/datasets/musdb18/train/Music Delta - Rock.stem_vocals.wav
p1892
sg12
I12
sg13
I44100
sbtp1893
a(g4
(g5
g6
NtRp1894
(dp1895
g9
I2
sg10
V/mnt/disks/datasets/musdb18/train/Music Delta - Rockabilly.stem_mix.wav
p1896
sg12
I25
sg13
I44100
sbg4
(g5
g6
NtRp1897
(dp1898
g9
I2
sg10
V/mnt/disks/datasets/musdb18/train/Music Delta - Rockabilly.stem_accompaniment.wav
p1899
sg12
I25
sg13
I44100
sbg4
(g5
g6
NtRp1900
(dp1901
g9
I2
sg10
V/mnt/disks/datasets/musdb18/train/Music Delta - Rockabilly.stem_bass.wav
p1902
sg12
I25
sg13
I44100
sbg4
(g5
g6
NtRp1903
(dp1904
g9
I2
sg10
V/mnt/disks/datasets/musdb18/train/Music Delta - Rockabilly.stem_drums.wav
p1905
sg12
I25
sg13
I44100
sbg4
(g5
g6
NtRp1906
(dp1907
g9
I2
sg10
V/mnt/disks/datasets/musdb18/train/Music Delta - Rockabilly.stem_other.wav
p1908
sg12
I25
sg13
I44100
sbg4
(g5
g6
NtRp1909
(dp1910
g9
I2
sg10
V/mnt/disks/datasets/musdb18/train/Music Delta - Rockabilly.stem_vocals.wav
p1911
sg12
I25
sg13
I44100
sbtp1912
a(g4
(g5
g6
NtRp1913
(dp1914
g9
I2
sg10
V/mnt/disks/datasets/musdb18/train/Night Panther - Fire.stem_mix.wav
p1915
sg12
I212
sg13
I44100
sbg4
(g5
g6
NtRp1916
(dp1917
g9
I2
sg10
V/mnt/disks/datasets/musdb18/train/Night Panther - Fire.stem_accompaniment.wav
p1918
sg12
I212
sg13
I44100
sbg4
(g5
g6
NtRp1919
(dp1920
g9
I2
sg10
V/mnt/disks/datasets/musdb18/train/Night Panther - Fire.stem_bass.wav
p1921
sg12
I212
sg13
I44100
sbg4
(g5
g6
NtRp1922
(dp1923
g9
I2
sg10
V/mnt/disks/datasets/musdb18/train/Night Panther - Fire.stem_drums.wav
p1924
sg12
I212
sg13
I44100
sbg4
(g5
g6
NtRp1925
(dp1926
g9
I2
sg10
V/mnt/disks/datasets/musdb18/train/Night Panther - Fire.stem_other.wav
p1927
sg12
I212
sg13
I44100
sbg4
(g5
g6
NtRp1928
(dp1929
g9
I2
sg10
V/mnt/disks/datasets/musdb18/train/Night Panther - Fire.stem_vocals.wav
p1930
sg12
I212
sg13
I44100
sbtp1931
a(g4
(g5
g6
NtRp1932
(dp1933
g9
I2
sg10
V/mnt/disks/datasets/musdb18/train/North To Alaska - All The Same.stem_mix.wav
p1934
sg12
I247
sg13
I44100
sbg4
(g5
g6
NtRp1935
(dp1936
g9
I2
sg10
V/mnt/disks/datasets/musdb18/train/North To Alaska - All The Same.stem_accompaniment.wav
p1937
sg12
I247
sg13
I44100
sbg4
(g5
g6
NtRp1938
(dp1939
g9
I2
sg10
V/mnt/disks/datasets/musdb18/train/North To Alaska - All The Same.stem_bass.wav
p1940
sg12
I247
sg13
I44100
sbg4
(g5
g6
NtRp1941
(dp1942
g9
I2
sg10
V/mnt/disks/datasets/musdb18/train/North To Alaska - All The Same.stem_drums.wav
p1943
sg12
I247
sg13
I44100
sbg4
(g5
g6
NtRp1944
(dp1945
g9
I2
sg10
V/mnt/disks/datasets/musdb18/train/North To Alaska - All The Same.stem_other.wav
p1946
sg12
I247
sg13
I44100
sbg4
(g5
g6
NtRp1947
(dp1948
g9
I2
sg10
V/mnt/disks/datasets/musdb18/train/North To Alaska - All The Same.stem_vocals.wav
p1949
sg12
I247
sg13
I44100
sbtp1950
a(g4
(g5
g6
NtRp1951
(dp1952
g9
I2
sg10
V/mnt/disks/datasets/musdb18/train/Patrick Talbot - A Reason To Leave.stem_mix.wav
p1953
sg12
I259
sg13
I44100
sbg4
(g5
g6
NtRp1954
(dp1955
g9
I2
sg10
V/mnt/disks/datasets/musdb18/train/Patrick Talbot - A Reason To Leave.stem_accompaniment.wav
p1956
sg12
I259
sg13
I44100
sbg4
(g5
g6
NtRp1957
(dp1958
g9
I2
sg10
V/mnt/disks/datasets/musdb18/train/Patrick Talbot - A Reason To Leave.stem_bass.wav
p1959
sg12
I259
sg13
I44100
sbg4
(g5
g6
NtRp1960
(dp1961
g9
I2
sg10
V/mnt/disks/datasets/musdb18/train/Patrick Talbot - A Reason To Leave.stem_drums.wav
p1962
sg12
I259
sg13
I44100
sbg4
(g5
g6
NtRp1963
(dp1964
g9
I2
sg10
V/mnt/disks/datasets/musdb18/train/Patrick Talbot - A Reason To Leave.stem_other.wav
p1965
sg12
I259
sg13
I44100
sbg4
(g5
g6
NtRp1966
(dp1967
g9
I2
sg10
V/mnt/disks/datasets/musdb18/train/Patrick Talbot - A Reason To Leave.stem_vocals.wav
p1968
sg12
I259
sg13
I44100
sbtp1969
a(g4
(g5
g6
NtRp1970
(dp1971
g9
I2
sg10
V/mnt/disks/datasets/musdb18/train/Phre The Eon - Everybody's Falling Apart.stem_mix.wav
p1972
sg12
I224
sg13
I44100
sbg4
(g5
g6
NtRp1973
(dp1974
g9
I2
sg10
V/mnt/disks/datasets/musdb18/train/Phre The Eon - Everybody's Falling Apart.stem_accompaniment.wav
p1975
sg12
I224
sg13
I44100
sbg4
(g5
g6
NtRp1976
(dp1977
g9
I2
sg10
V/mnt/disks/datasets/musdb18/train/Phre The Eon - Everybody's Falling Apart.stem_bass.wav
p1978
sg12
I224
sg13
I44100
sbg4
(g5
g6
NtRp1979
(dp1980
g9
I2
sg10
V/mnt/disks/datasets/musdb18/train/Phre The Eon - Everybody's Falling Apart.stem_drums.wav
p1981
sg12
I224
sg13
I44100
sbg4
(g5
g6
NtRp1982
(dp1983
g9
I2
sg10
V/mnt/disks/datasets/musdb18/train/Phre The Eon - Everybody's Falling Apart.stem_other.wav
p1984
sg12
I224
sg13
I44100
sbg4
(g5
g6
NtRp1985
(dp1986
g9
I2
sg10
V/mnt/disks/datasets/musdb18/train/Phre The Eon - Everybody's Falling Apart.stem_vocals.wav
p1987
sg12
I224
sg13
I44100
sbtp1988
a(g4
(g5
g6
NtRp1989
(dp1990
g9
I2
sg10
V/mnt/disks/datasets/musdb18/train/Port St Willow - Stay Even.stem_mix.wav
p1991
sg12
I316
sg13
I44100
sbg4
(g5
g6
NtRp1992
(dp1993
g9
I2
sg10
V/mnt/disks/datasets/musdb18/train/Port St Willow - Stay Even.stem_accompaniment.wav
p1994
sg12
I316
sg13
I44100
sbg4
(g5
g6
NtRp1995
(dp1996
g9
I2
sg10
V/mnt/disks/datasets/musdb18/train/Port St Willow - Stay Even.stem_bass.wav
p1997
sg12
I316
sg13
I44100
sbg4
(g5
g6
NtRp1998
(dp1999
g9
I2
sg10
V/mnt/disks/datasets/musdb18/train/Port St Willow - Stay Even.stem_drums.wav
p2000
sg12
I316
sg13
I44100
sbg4
(g5
g6
NtRp2001
(dp2002
g9
I2
sg10
V/mnt/disks/datasets/musdb18/train/Port St Willow - Stay Even.stem_other.wav
p2003
sg12
I316
sg13
I44100
sbg4
(g5
g6
NtRp2004
(dp2005
g9
I2
sg10
V/mnt/disks/datasets/musdb18/train/Port St Willow - Stay Even.stem_vocals.wav
p2006
sg12
I316
sg13
I44100
sbtp2007
a(g4
(g5
g6
NtRp2008
(dp2009
g9
I2
sg10
V/mnt/disks/datasets/musdb18/train/Secret Mountains - High Horse.stem_mix.wav
p2010
sg12
I355
sg13
I44100
sbg4
(g5
g6
NtRp2011
(dp2012
g9
I2
sg10
V/mnt/disks/datasets/musdb18/train/Secret Mountains - High Horse.stem_accompaniment.wav
p2013
sg12
I355
sg13
I44100
sbg4
(g5
g6
NtRp2014
(dp2015
g9
I2
sg10
V/mnt/disks/datasets/musdb18/train/Secret Mountains - High Horse.stem_bass.wav
p2016
sg12
I355
sg13
I44100
sbg4
(g5
g6
NtRp2017
(dp2018
g9
I2
sg10
V/mnt/disks/datasets/musdb18/train/Secret Mountains - High Horse.stem_drums.wav
p2019
sg12
I355
sg13
I44100
sbg4
(g5
g6
NtRp2020
(dp2021
g9
I2
sg10
V/mnt/disks/datasets/musdb18/train/Secret Mountains - High Horse.stem_other.wav
p2022
sg12
I355
sg13
I44100
sbg4
(g5
g6
NtRp2023
(dp2024
g9
I2
sg10
V/mnt/disks/datasets/musdb18/train/Secret Mountains - High Horse.stem_vocals.wav
p2025
sg12
I355
sg13
I44100
sbtp2026
a(g4
(g5
g6
NtRp2027
(dp2028
g9
I2
sg10
V/mnt/disks/datasets/musdb18/train/Skelpolu - Human Mistakes.stem_mix.wav
p2029
sg12
I324
sg13
I44100
sbg4
(g5
g6
NtRp2030
(dp2031
g9
I2
sg10
V/mnt/disks/datasets/musdb18/train/Skelpolu - Human Mistakes.stem_accompaniment.wav
p2032
sg12
I324
sg13
I44100
sbg4
(g5
g6
NtRp2033
(dp2034
g9
I2
sg10
V/mnt/disks/datasets/musdb18/train/Skelpolu - Human Mistakes.stem_bass.wav
p2035
sg12
I324
sg13
I44100
sbg4
(g5
g6
NtRp2036
(dp2037
g9
I2
sg10
V/mnt/disks/datasets/musdb18/train/Skelpolu - Human Mistakes.stem_drums.wav
p2038
sg12
I324
sg13
I44100
sbg4
(g5
g6
NtRp2039
(dp2040
g9
I2
sg10
V/mnt/disks/datasets/musdb18/train/Skelpolu - Human Mistakes.stem_other.wav
p2041
sg12
I324
sg13
I44100
sbg4
(g5
g6
NtRp2042
(dp2043
g9
I2
sg10
V/mnt/disks/datasets/musdb18/train/Skelpolu - Human Mistakes.stem_vocals.wav
p2044
sg12
I324
sg13
I44100
sbtp2045
a(g4
(g5
g6
NtRp2046
(dp2047
g9
I2
sg10
V/mnt/disks/datasets/musdb18/train/Snowmine - Curfews.stem_mix.wav
p2048
sg12
I275
sg13
I44100
sbg4
(g5
g6
NtRp2049
(dp2050
g9
I2
sg10
V/mnt/disks/datasets/musdb18/train/Snowmine - Curfews.stem_accompaniment.wav
p2051
sg12
I275
sg13
I44100
sbg4
(g5
g6
NtRp2052
(dp2053
g9
I2
sg10
V/mnt/disks/datasets/musdb18/train/Snowmine - Curfews.stem_bass.wav
p2054
sg12
I275
sg13
I44100
sbg4
(g5
g6
NtRp2055
(dp2056
g9
I2
sg10
V/mnt/disks/datasets/musdb18/train/Snowmine - Curfews.stem_drums.wav
p2057
sg12
I275
sg13
I44100
sbg4
(g5
g6
NtRp2058
(dp2059
g9
I2
sg10
V/mnt/disks/datasets/musdb18/train/Snowmine - Curfews.stem_other.wav
p2060
sg12
I275
sg13
I44100
sbg4
(g5
g6
NtRp2061
(dp2062
g9
I2
sg10
V/mnt/disks/datasets/musdb18/train/Snowmine - Curfews.stem_vocals.wav
p2063
sg12
I275
sg13
I44100
sbtp2064
a(g4
(g5
g6
NtRp2065
(dp2066
g9
I2
sg10
V/mnt/disks/datasets/musdb18/train/Spike Mullings - Mike's Sulking.stem_mix.wav
p2067
sg12
I256
sg13
I44100
sbg4
(g5
g6
NtRp2068
(dp2069
g9
I2
sg10
V/mnt/disks/datasets/musdb18/train/Spike Mullings - Mike's Sulking.stem_accompaniment.wav
p2070
sg12
I256
sg13
I44100
sbg4
(g5
g6
NtRp2071
(dp2072
g9
I2
sg10
V/mnt/disks/datasets/musdb18/train/Spike Mullings - Mike's Sulking.stem_bass.wav
p2073
sg12
I256
sg13
I44100
sbg4
(g5
g6
NtRp2074
(dp2075
g9
I2
sg10
V/mnt/disks/datasets/musdb18/train/Spike Mullings - Mike's Sulking.stem_drums.wav
p2076
sg12
I256
sg13
I44100
sbg4
(g5
g6
NtRp2077
(dp2078
g9
I2
sg10
V/mnt/disks/datasets/musdb18/train/Spike Mullings - Mike's Sulking.stem_other.wav
p2079
sg12
I256
sg13
I44100
sbg4
(g5
g6
NtRp2080
(dp2081
g9
I2
sg10
V/mnt/disks/datasets/musdb18/train/Spike Mullings - Mike's Sulking.stem_vocals.wav
p2082
sg12
I256
sg13
I44100
sbtp2083
a(g4
(g5
g6
NtRp2084
(dp2085
g9
I2
sg10
V/mnt/disks/datasets/musdb18/train/Steven Clark - Bounty.stem_mix.wav
p2086
sg12
I289
sg13
I44100
sbg4
(g5
g6
NtRp2087
(dp2088
g9
I2
sg10
V/mnt/disks/datasets/musdb18/train/Steven Clark - Bounty.stem_accompaniment.wav
p2089
sg12
I289
sg13
I44100
sbg4
(g5
g6
NtRp2090
(dp2091
g9
I2
sg10
V/mnt/disks/datasets/musdb18/train/Steven Clark - Bounty.stem_bass.wav
p2092
sg12
I289
sg13
I44100
sbg4
(g5
g6
NtRp2093
(dp2094
g9
I2
sg10
V/mnt/disks/datasets/musdb18/train/Steven Clark - Bounty.stem_drums.wav
p2095
sg12
I289
sg13
I44100
sbg4
(g5
g6
NtRp2096
(dp2097
g9
I2
sg10
V/mnt/disks/datasets/musdb18/train/Steven Clark - Bounty.stem_other.wav
p2098
sg12
I289
sg13
I44100
sbg4
(g5
g6
NtRp2099
(dp2100
g9
I2
sg10
V/mnt/disks/datasets/musdb18/train/Steven Clark - Bounty.stem_vocals.wav
p2101
sg12
I289
sg13
I44100
sbtp2102
a(g4
(g5
g6
NtRp2103
(dp2104
g9
I2
sg10
V/mnt/disks/datasets/musdb18/train/Sweet Lights - You Let Me Down.stem_mix.wav
p2105
sg12
I391
sg13
I44100
sbg4
(g5
g6
NtRp2106
(dp2107
g9
I2
sg10
V/mnt/disks/datasets/musdb18/train/Sweet Lights - You Let Me Down.stem_accompaniment.wav
p2108
sg12
I391
sg13
I44100
sbg4
(g5
g6
NtRp2109
(dp2110
g9
I2
sg10
V/mnt/disks/datasets/musdb18/train/Sweet Lights - You Let Me Down.stem_bass.wav
p2111
sg12
I391
sg13
I44100
sbg4
(g5
g6
NtRp2112
(dp2113
g9
I2
sg10
V/mnt/disks/datasets/musdb18/train/Sweet Lights - You Let Me Down.stem_drums.wav
p2114
sg12
I391
sg13
I44100
sbg4
(g5
g6
NtRp2115
(dp2116
g9
I2
sg10
V/mnt/disks/datasets/musdb18/train/Sweet Lights - You Let Me Down.stem_other.wav
p2117
sg12
I391
sg13
I44100
sbg4
(g5
g6
NtRp2118
(dp2119
g9
I2
sg10
V/mnt/disks/datasets/musdb18/train/Sweet Lights - You Let Me Down.stem_vocals.wav
p2120
sg12
I391
sg13
I44100
sbtp2121
a(g4
(g5
g6
NtRp2122
(dp2123
g9
I2
sg10
V/mnt/disks/datasets/musdb18/train/Swinging Steaks - Lost My Way.stem_mix.wav
p2124
sg12
I309
sg13
I44100
sbg4
(g5
g6
NtRp2125
(dp2126
g9
I2
sg10
V/mnt/disks/datasets/musdb18/train/Swinging Steaks - Lost My Way.stem_accompaniment.wav
p2127
sg12
I309
sg13
I44100
sbg4
(g5
g6
NtRp2128
(dp2129
g9
I2
sg10
V/mnt/disks/datasets/musdb18/train/Swinging Steaks - Lost My Way.stem_bass.wav
p2130
sg12
I309
sg13
I44100
sbg4
(g5
g6
NtRp2131
(dp2132
g9
I2
sg10
V/mnt/disks/datasets/musdb18/train/Swinging Steaks - Lost My Way.stem_drums.wav
p2133
sg12
I309
sg13
I44100
sbg4
(g5
g6
NtRp2134
(dp2135
g9
I2
sg10
V/mnt/disks/datasets/musdb18/train/Swinging Steaks - Lost My Way.stem_other.wav
p2136
sg12
I309
sg13
I44100
sbg4
(g5
g6
NtRp2137
(dp2138
g9
I2
sg10
V/mnt/disks/datasets/musdb18/train/Swinging Steaks - Lost My Way.stem_vocals.wav
p2139
sg12
I309
sg13
I44100
sbtp2140
a(g4
(g5
g6
NtRp2141
(dp2142
g9
I2
sg10
V/mnt/disks/datasets/musdb18/train/The Districts - Vermont.stem_mix.wav
p2143
sg12
I227
sg13
I44100
sbg4
(g5
g6
NtRp2144
(dp2145
g9
I2
sg10
V/mnt/disks/datasets/musdb18/train/The Districts - Vermont.stem_accompaniment.wav
p2146
sg12
I227
sg13
I44100
sbg4
(g5
g6
NtRp2147
(dp2148
g9
I2
sg10
V/mnt/disks/datasets/musdb18/train/The Districts - Vermont.stem_bass.wav
p2149
sg12
I227
sg13
I44100
sbg4
(g5
g6
NtRp2150
(dp2151
g9
I2
sg10
V/mnt/disks/datasets/musdb18/train/The Districts - Vermont.stem_drums.wav
p2152
sg12
I227
sg13
I44100
sbg4
(g5
g6
NtRp2153
(dp2154
g9
I2
sg10
V/mnt/disks/datasets/musdb18/train/The Districts - Vermont.stem_other.wav
p2155
sg12
I227
sg13
I44100
sbg4
(g5
g6
NtRp2156
(dp2157
g9
I2
sg10
V/mnt/disks/datasets/musdb18/train/The Districts - Vermont.stem_vocals.wav
p2158
sg12
I227
sg13
I44100
sbtp2159
a(g4
(g5
g6
NtRp2160
(dp2161
g9
I2
sg10
V/mnt/disks/datasets/musdb18/train/The Long Wait - Back Home To Blue.stem_mix.wav
p2162
sg12
I260
sg13
I44100
sbg4
(g5
g6
NtRp2163
(dp2164
g9
I2
sg10
V/mnt/disks/datasets/musdb18/train/The Long Wait - Back Home To Blue.stem_accompaniment.wav
p2165
sg12
I260
sg13
I44100
sbg4
(g5
g6
NtRp2166
(dp2167
g9
I2
sg10
V/mnt/disks/datasets/musdb18/train/The Long Wait - Back Home To Blue.stem_bass.wav
p2168
sg12
I260
sg13
I44100
sbg4
(g5
g6
NtRp2169
(dp2170
g9
I2
sg10
V/mnt/disks/datasets/musdb18/train/The Long Wait - Back Home To Blue.stem_drums.wav
p2171
sg12
I260
sg13
I44100
sbg4
(g5
g6
NtRp2172
(dp2173
g9
I2
sg10
V/mnt/disks/datasets/musdb18/train/The Long Wait - Back Home To Blue.stem_other.wav
p2174
sg12
I260
sg13
I44100
sbg4
(g5
g6
NtRp2175
(dp2176
g9
I2
sg10
V/mnt/disks/datasets/musdb18/train/The Long Wait - Back Home To Blue.stem_vocals.wav
p2177
sg12
I260
sg13
I44100
sbtp2178
a(g4
(g5
g6
NtRp2179
(dp2180
g9
I2
sg10
V/mnt/disks/datasets/musdb18/train/The Wrong'Uns - Rothko.stem_mix.wav
p2181
sg12
I202
sg13
I44100
sbg4
(g5
g6
NtRp2182
(dp2183
g9
I2
sg10
V/mnt/disks/datasets/musdb18/train/The Wrong'Uns - Rothko.stem_accompaniment.wav
p2184
sg12
I202
sg13
I44100
sbg4
(g5
g6
NtRp2185
(dp2186
g9
I2
sg10
V/mnt/disks/datasets/musdb18/train/The Wrong'Uns - Rothko.stem_bass.wav
p2187
sg12
I202
sg13
I44100
sbg4
(g5
g6
NtRp2188
(dp2189
g9
I2
sg10
V/mnt/disks/datasets/musdb18/train/The Wrong'Uns - Rothko.stem_drums.wav
p2190
sg12
I202
sg13
I44100
sbg4
(g5
g6
NtRp2191
(dp2192
g9
I2
sg10
V/mnt/disks/datasets/musdb18/train/The Wrong'Uns - Rothko.stem_other.wav
p2193
sg12
I202
sg13
I44100
sbg4
(g5
g6
NtRp2194
(dp2195
g9
I2
sg10
V/mnt/disks/datasets/musdb18/train/The Wrong'Uns - Rothko.stem_vocals.wav
p2196
sg12
I202
sg13
I44100
sbtp2197
a(g4
(g5
g6
NtRp2198
(dp2199
g9
I2
sg10
V/mnt/disks/datasets/musdb18/train/Tim Taler - Stalker.stem_mix.wav
p2200
sg12
I237
sg13
I44100
sbg4
(g5
g6
NtRp2201
(dp2202
g9
I2
sg10
V/mnt/disks/datasets/musdb18/train/Tim Taler - Stalker.stem_accompaniment.wav
p2203
sg12
I237
sg13
I44100
sbg4
(g5
g6
NtRp2204
(dp2205
g9
I2
sg10
V/mnt/disks/datasets/musdb18/train/Tim Taler - Stalker.stem_bass.wav
p2206
sg12
I237
sg13
I44100
sbg4
(g5
g6
NtRp2207
(dp2208
g9
I2
sg10
V/mnt/disks/datasets/musdb18/train/Tim Taler - Stalker.stem_drums.wav
p2209
sg12
I237
sg13
I44100
sbg4
(g5
g6
NtRp2210
(dp2211
g9
I2
sg10
V/mnt/disks/datasets/musdb18/train/Tim Taler - Stalker.stem_other.wav
p2212
sg12
I237
sg13
I44100
sbg4
(g5
g6
NtRp2213
(dp2214
g9
I2
sg10
V/mnt/disks/datasets/musdb18/train/Tim Taler - Stalker.stem_vocals.wav
p2215
sg12
I237
sg13
I44100
sbtp2216
a(g4
(g5
g6
NtRp2217
(dp2218
g9
I2
sg10
V/mnt/disks/datasets/musdb18/train/Titanium - Haunted Age.stem_mix.wav
p2219
sg12
I248
sg13
I44100
sbg4
(g5
g6
NtRp2220
(dp2221
g9
I2
sg10
V/mnt/disks/datasets/musdb18/train/Titanium - Haunted Age.stem_accompaniment.wav
p2222
sg12
I248
sg13
I44100
sbg4
(g5
g6
NtRp2223
(dp2224
g9
I2
sg10
V/mnt/disks/datasets/musdb18/train/Titanium - Haunted Age.stem_bass.wav
p2225
sg12
I248
sg13
I44100
sbg4
(g5
g6
NtRp2226
(dp2227
g9
I2
sg10
V/mnt/disks/datasets/musdb18/train/Titanium - Haunted Age.stem_drums.wav
p2228
sg12
I248
sg13
I44100
sbg4
(g5
g6
NtRp2229
(dp2230
g9
I2
sg10
V/mnt/disks/datasets/musdb18/train/Titanium - Haunted Age.stem_other.wav
p2231
sg12
I248
sg13
I44100
sbg4
(g5
g6
NtRp2232
(dp2233
g9
I2
sg10
V/mnt/disks/datasets/musdb18/train/Titanium - Haunted Age.stem_vocals.wav
p2234
sg12
I248
sg13
I44100
sbtp2235
a(g4
(g5
g6
NtRp2236
(dp2237
g9
I2
sg10
V/mnt/disks/datasets/musdb18/train/Traffic Experiment - Sirens.stem_mix.wav
p2238
sg12
I421
sg13
I44100
sbg4
(g5
g6
NtRp2239
(dp2240
g9
I2
sg10
V/mnt/disks/datasets/musdb18/train/Traffic Experiment - Sirens.stem_accompaniment.wav
p2241
sg12
I421
sg13
I44100
sbg4
(g5
g6
NtRp2242
(dp2243
g9
I2
sg10
V/mnt/disks/datasets/musdb18/train/Traffic Experiment - Sirens.stem_bass.wav
p2244
sg12
I421
sg13
I44100
sbg4
(g5
g6
NtRp2245
(dp2246
g9
I2
sg10
V/mnt/disks/datasets/musdb18/train/Traffic Experiment - Sirens.stem_drums.wav
p2247
sg12
I421
sg13
I44100
sbg4
(g5
g6
NtRp2248
(dp2249
g9
I2
sg10
V/mnt/disks/datasets/musdb18/train/Traffic Experiment - Sirens.stem_other.wav
p2250
sg12
I421
sg13
I44100
sbg4
(g5
g6
NtRp2251
(dp2252
g9
I2
sg10
V/mnt/disks/datasets/musdb18/train/Traffic Experiment - Sirens.stem_vocals.wav
p2253
sg12
I421
sg13
I44100
sbtp2254
a(g4
(g5
g6
NtRp2255
(dp2256
g9
I2
sg10
V/mnt/disks/datasets/musdb18/train/Triviul - Angelsaint.stem_mix.wav
p2257
sg12
I236
sg13
I44100
sbg4
(g5
g6
NtRp2258
(dp2259
g9
I2
sg10
V/mnt/disks/datasets/musdb18/train/Triviul - Angelsaint.stem_accompaniment.wav
p2260
sg12
I236
sg13
I44100
sbg4
(g5
g6
NtRp2261
(dp2262
g9
I2
sg10
V/mnt/disks/datasets/musdb18/train/Triviul - Angelsaint.stem_bass.wav
p2263
sg12
I236
sg13
I44100
sbg4
(g5
g6
NtRp2264
(dp2265
g9
I2
sg10
V/mnt/disks/datasets/musdb18/train/Triviul - Angelsaint.stem_drums.wav
p2266
sg12
I236
sg13
I44100
sbg4
(g5
g6
NtRp2267
(dp2268
g9
I2
sg10
V/mnt/disks/datasets/musdb18/train/Triviul - Angelsaint.stem_other.wav
p2269
sg12
I236
sg13
I44100
sbg4
(g5
g6
NtRp2270
(dp2271
g9
I2
sg10
V/mnt/disks/datasets/musdb18/train/Triviul - Angelsaint.stem_vocals.wav
p2272
sg12
I236
sg13
I44100
sbtp2273
a(g4
(g5
g6
NtRp2274
(dp2275
g9
I2
sg10
V/mnt/disks/datasets/musdb18/train/Triviul - Dorothy.stem_mix.wav
p2276
sg12
I187
sg13
I44100
sbg4
(g5
g6
NtRp2277
(dp2278
g9
I2
sg10
V/mnt/disks/datasets/musdb18/train/Triviul - Dorothy.stem_accompaniment.wav
p2279
sg12
I187
sg13
I44100
sbg4
(g5
g6
NtRp2280
(dp2281
g9
I2
sg10
V/mnt/disks/datasets/musdb18/train/Triviul - Dorothy.stem_bass.wav
p2282
sg12
I187
sg13
I44100
sbg4
(g5
g6
NtRp2283
(dp2284
g9
I2
sg10
V/mnt/disks/datasets/musdb18/train/Triviul - Dorothy.stem_drums.wav
p2285
sg12
I187
sg13
I44100
sbg4
(g5
g6
NtRp2286
(dp2287
g9
I2
sg10
V/mnt/disks/datasets/musdb18/train/Triviul - Dorothy.stem_other.wav
p2288
sg12
I187
sg13
I44100
sbg4
(g5
g6
NtRp2289
(dp2290
g9
I2
sg10
V/mnt/disks/datasets/musdb18/train/Triviul - Dorothy.stem_vocals.wav
p2291
sg12
I187
sg13
I44100
sbtp2292
a(g4
(g5
g6
NtRp2293
(dp2294
g9
I2
sg10
V/mnt/disks/datasets/musdb18/train/Voelund - Comfort Lives In Belief.stem_mix.wav
p2295
sg12
I209
sg13
I44100
sbg4
(g5
g6
NtRp2296
(dp2297
g9
I2
sg10
V/mnt/disks/datasets/musdb18/train/Voelund - Comfort Lives In Belief.stem_accompaniment.wav
p2298
sg12
I209
sg13
I44100
sbg4
(g5
g6
NtRp2299
(dp2300
g9
I2
sg10
V/mnt/disks/datasets/musdb18/train/Voelund - Comfort Lives In Belief.stem_bass.wav
p2301
sg12
I209
sg13
I44100
sbg4
(g5
g6
NtRp2302
(dp2303
g9
I2
sg10
V/mnt/disks/datasets/musdb18/train/Voelund - Comfort Lives In Belief.stem_drums.wav
p2304
sg12
I209
sg13
I44100
sbg4
(g5
g6
NtRp2305
(dp2306
g9
I2
sg10
V/mnt/disks/datasets/musdb18/train/Voelund - Comfort Lives In Belief.stem_other.wav
p2307
sg12
I209
sg13
I44100
sbg4
(g5
g6
NtRp2308
(dp2309
g9
I2
sg10
V/mnt/disks/datasets/musdb18/train/Voelund - Comfort Lives In Belief.stem_vocals.wav
p2310
sg12
I209
sg13
I44100
sbtp2311
a(g4
(g5
g6
NtRp2312
(dp2313
g9
I2
sg10
V/mnt/disks/datasets/musdb18/train/Wall Of Death - Femme.stem_mix.wav
p2314
sg12
I238
sg13
I44100
sbg4
(g5
g6
NtRp2315
(dp2316
g9
I2
sg10
V/mnt/disks/datasets/musdb18/train/Wall Of Death - Femme.stem_accompaniment.wav
p2317
sg12
I238
sg13
I44100
sbg4
(g5
g6
NtRp2318
(dp2319
g9
I2
sg10
V/mnt/disks/datasets/musdb18/train/Wall Of Death - Femme.stem_bass.wav
p2320
sg12
I238
sg13
I44100
sbg4
(g5
g6
NtRp2321
(dp2322
g9
I2
sg10
V/mnt/disks/datasets/musdb18/train/Wall Of Death - Femme.stem_drums.wav
p2323
sg12
I238
sg13
I44100
sbg4
(g5
g6
NtRp2324
(dp2325
g9
I2
sg10
V/mnt/disks/datasets/musdb18/train/Wall Of Death - Femme.stem_other.wav
p2326
sg12
I238
sg13
I44100
sbg4
(g5
g6
NtRp2327
(dp2328
g9
I2
sg10
V/mnt/disks/datasets/musdb18/train/Wall Of Death - Femme.stem_vocals.wav
p2329
sg12
I238
sg13
I44100
sbtp2330
a(g4
(g5
g6
NtRp2331
(dp2332
g9
I2
sg10
V/mnt/disks/datasets/musdb18/train/Young Griffo - Blood To Bone.stem_mix.wav
p2333
sg12
I254
sg13
I44100
sbg4
(g5
g6
NtRp2334
(dp2335
g9
I2
sg10
V/mnt/disks/datasets/musdb18/train/Young Griffo - Blood To Bone.stem_accompaniment.wav
p2336
sg12
I254
sg13
I44100
sbg4
(g5
g6
NtRp2337
(dp2338
g9
I2
sg10
V/mnt/disks/datasets/musdb18/train/Young Griffo - Blood To Bone.stem_bass.wav
p2339
sg12
I254
sg13
I44100
sbg4
(g5
g6
NtRp2340
(dp2341
g9
I2
sg10
V/mnt/disks/datasets/musdb18/train/Young Griffo - Blood To Bone.stem_drums.wav
p2342
sg12
I254
sg13
I44100
sbg4
(g5
g6
NtRp2343
(dp2344
g9
I2
sg10
V/mnt/disks/datasets/musdb18/train/Young Griffo - Blood To Bone.stem_other.wav
p2345
sg12
I254
sg13
I44100
sbg4
(g5
g6
NtRp2346
(dp2347
g9
I2
sg10
V/mnt/disks/datasets/musdb18/train/Young Griffo - Blood To Bone.stem_vocals.wav
p2348
sg12
I254
sg13
I44100
sbtp2349
a(g4
(g5
g6
NtRp2350
(dp2351
g9
I2
sg10
V/mnt/disks/datasets/musdb18/train/Young Griffo - Facade.stem_mix.wav
p2352
sg12
I167
sg13
I44100
sbg4
(g5
g6
NtRp2353
(dp2354
g9
I2
sg10
V/mnt/disks/datasets/musdb18/train/Young Griffo - Facade.stem_accompaniment.wav
p2355
sg12
I167
sg13
I44100
sbg4
(g5
g6
NtRp2356
(dp2357
g9
I2
sg10
V/mnt/disks/datasets/musdb18/train/Young Griffo - Facade.stem_bass.wav
p2358
sg12
I167
sg13
I44100
sbg4
(g5
g6
NtRp2359
(dp2360
g9
I2
sg10
V/mnt/disks/datasets/musdb18/train/Young Griffo - Facade.stem_drums.wav
p2361
sg12
I167
sg13
I44100
sbg4
(g5
g6
NtRp2362
(dp2363
g9
I2
sg10
V/mnt/disks/datasets/musdb18/train/Young Griffo - Facade.stem_other.wav
p2364
sg12
I167
sg13
I44100
sbg4
(g5
g6
NtRp2365
(dp2366
g9
I2
sg10
V/mnt/disks/datasets/musdb18/train/Young Griffo - Facade.stem_vocals.wav
p2367
sg12
I167
sg13
I44100
sbtp2368
a(g4
(g5
g6
NtRp2369
(dp2370
g9
I2
sg10
V/mnt/disks/datasets/musdb18/train/Young Griffo - Pennies.stem_mix.wav
p2371
sg12
I277
sg13
I44100
sbg4
(g5
g6
NtRp2372
(dp2373
g9
I2
sg10
V/mnt/disks/datasets/musdb18/train/Young Griffo - Pennies.stem_accompaniment.wav
p2374
sg12
I277
sg13
I44100
sbg4
(g5
g6
NtRp2375
(dp2376
g9
I2
sg10
V/mnt/disks/datasets/musdb18/train/Young Griffo - Pennies.stem_bass.wav
p2377
sg12
I277
sg13
I44100
sbg4
(g5
g6
NtRp2378
(dp2379
g9
I2
sg10
V/mnt/disks/datasets/musdb18/train/Young Griffo - Pennies.stem_drums.wav
p2380
sg12
I277
sg13
I44100
sbg4
(g5
g6
NtRp2381
(dp2382
g9
I2
sg10
V/mnt/disks/datasets/musdb18/train/Young Griffo - Pennies.stem_other.wav
p2383
sg12
I277
sg13
I44100
sbg4
(g5
g6
NtRp2384
(dp2385
g9
I2
sg10
V/mnt/disks/datasets/musdb18/train/Young Griffo - Pennies.stem_vocals.wav
p2386
sg12
I277
sg13
I44100
sbtp2387
a(g4
(g5
g6
NtRp2388
(dp2389
g9
I2
sg10
S'/home/daniel/Datasets/ccmixter_corpus/AlexBeroza_-_To_Be_Sensitive_(with_mindmapthat)/mix.wav'
p2390
sg12
F215.01943299999999
sg13
I44100
sbg4
(g5
g6
NtRp2391
(dp2392
g9
I2
sg10
S'/home/daniel/Datasets/ccmixter_corpus/AlexBeroza_-_To_Be_Sensitive_(with_mindmapthat)/source-01.wav'
p2393
sg12
F215.01943299999999
sg13
I44100
sbg4
(g5
g6
NtRp2394
(dp2395
g9
I2
sg10
S'/home/daniel/Datasets/ccmixter_corpus/AlexBeroza_-_To_Be_Sensitive_(with_mindmapthat)/source-02.wav'
p2396
sg12
F215.01943299999999
sg13
I44100
sbtp2397
a(g4
(g5
g6
NtRp2398
(dp2399
g9
I2
sg10
S'/home/daniel/Datasets/ccmixter_corpus/casimps1_-_Bingo_(B-I-N-G-O)/mix.wav'
p2400
sg12
F89.521632999999994
sg13
I44100
sbg4
(g5
g6
NtRp2401
(dp2402
g9
I2
sg10
S'/home/daniel/Datasets/ccmixter_corpus/casimps1_-_Bingo_(B-I-N-G-O)/source-01.wav'
p2403
sg12
F89.521632999999994
sg13
I44100
sbg4
(g5
g6
NtRp2404
(dp2405
g9
I2
sg10
S'/home/daniel/Datasets/ccmixter_corpus/casimps1_-_Bingo_(B-I-N-G-O)/source-02.wav'
p2406
sg12
F89.521632999999994
sg13
I44100
sbtp2407
a(g4
(g5
g6
NtRp2408
(dp2409
g9
I2
sg10
S'/home/daniel/Datasets/ccmixter_corpus/casimps1_-_Could_Be/mix.wav'
p2410
sg12
F228.07510199999999
sg13
I44100
sbg4
(g5
g6
NtRp2411
(dp2412
g9
I2
sg10
S'/home/daniel/Datasets/ccmixter_corpus/casimps1_-_Could_Be/source-01.wav'
p2413
sg12
F228.07510199999999
sg13
I44100
sbg4
(g5
g6
NtRp2414
(dp2415
g9
I2
sg10
S'/home/daniel/Datasets/ccmixter_corpus/casimps1_-_Could_Be/source-02.wav'
p2416
sg12
F228.07510199999999
sg13
I44100
sbtp2417
a(g4
(g5
g6
NtRp2418
(dp2419
g9
I2
sg10
S'/home/daniel/Datasets/ccmixter_corpus/casimps1_-_Itsy_Bitsy_Spider/mix.wav'
p2420
sg12
F84.035917999999995
sg13
I44100
sbg4
(g5
g6
NtRp2421
(dp2422
g9
I2
sg10
S'/home/daniel/Datasets/ccmixter_corpus/casimps1_-_Itsy_Bitsy_Spider/source-01.wav'
p2423
sg12
F84.035917999999995
sg13
I44100
sbg4
(g5
g6
NtRp2424
(dp2425
g9
I2
sg10
S'/home/daniel/Datasets/ccmixter_corpus/casimps1_-_Itsy_Bitsy_Spider/source-02.wav'
p2426
sg12
F84.035917999999995
sg13
I44100
sbtp2427
a(g4
(g5
g6
NtRp2428
(dp2429
g9
I2
sg10
S'/home/daniel/Datasets/ccmixter_corpus/casimps1_-_Twinkle_Twinkle_Little_Star/mix.wav'
p2430
sg12
F77.322449000000006
sg13
I44100
sbg4
(g5
g6
NtRp2431
(dp2432
g9
I2
sg10
S'/home/daniel/Datasets/ccmixter_corpus/casimps1_-_Twinkle_Twinkle_Little_Star/source-01.wav'
p2433
sg12
F77.322449000000006
sg13
I44100
sbg4
(g5
g6
NtRp2434
(dp2435
g9
I2
sg10
S'/home/daniel/Datasets/ccmixter_corpus/casimps1_-_Twinkle_Twinkle_Little_Star/source-02.wav'
p2436
sg12
F77.322449000000006
sg13
I44100
sbtp2437
a(g4
(g5
g6
NtRp2438
(dp2439
g9
I2
sg10
S'/home/daniel/Datasets/ccmixter_corpus/copperhead_-_Need_You_Baby/mix.wav'
p2440
sg12
F288.53934199999998
sg13
I44100
sbg4
(g5
g6
NtRp2441
(dp2442
g9
I2
sg10
S'/home/daniel/Datasets/ccmixter_corpus/copperhead_-_Need_You_Baby/source-01.wav'
p2443
sg12
F288.53934199999998
sg13
I44100
sbg4
(g5
g6
NtRp2444
(dp2445
g9
I2
sg10
S'/home/daniel/Datasets/ccmixter_corpus/copperhead_-_Need_You_Baby/source-02.wav'
p2446
sg12
F288.53934199999998
sg13
I44100
sbtp2447
a(g4
(g5
g6
NtRp2448
(dp2449
g9
I2
sg10
S'/home/daniel/Datasets/ccmixter_corpus/doxent_-_Alice_In_the_City/mix.wav'
p2450
sg12
F205.894127
sg13
I44100
sbg4
(g5
g6
NtRp2451
(dp2452
g9
I2
sg10
S'/home/daniel/Datasets/ccmixter_corpus/doxent_-_Alice_In_the_City/source-01.wav'
p2453
sg12
F205.894127
sg13
I44100
sbg4
(g5
g6
NtRp2454
(dp2455
g9
I2
sg10
S'/home/daniel/Datasets/ccmixter_corpus/doxent_-_Alice_In_the_City/source-02.wav'
p2456
sg12
F205.894127
sg13
I44100
sbtp2457
a(g4
(g5
g6
NtRp2458
(dp2459
g9
I2
sg10
S'/home/daniel/Datasets/ccmixter_corpus/geertveneklaas_-_Blue_Boy/mix.wav'
p2460
sg12
F242.050612
sg13
I44100
sbg4
(g5
g6
NtRp2461
(dp2462
g9
I2
sg10
S'/home/daniel/Datasets/ccmixter_corpus/geertveneklaas_-_Blue_Boy/source-01.wav'
p2463
sg12
F242.050612
sg13
I44100
sbg4
(g5
g6
NtRp2464
(dp2465
g9
I2
sg10
S'/home/daniel/Datasets/ccmixter_corpus/geertveneklaas_-_Blue_Boy/source-02.wav'
p2466
sg12
F242.050612
sg13
I44100
sbtp2467
a(g4
(g5
g6
NtRp2468
(dp2469
g9
I2
sg10
S'/home/daniel/Datasets/ccmixter_corpus/Javolenus_-_King_Henry_(Border_Ballad)/mix.wav'
p2470
sg12
F315.06285700000001
sg13
I44100
sbg4
(g5
g6
NtRp2471
(dp2472
g9
I2
sg10
S'/home/daniel/Datasets/ccmixter_corpus/Javolenus_-_King_Henry_(Border_Ballad)/source-01.wav'
p2473
sg12
F315.06285700000001
sg13
I44100
sbg4
(g5
g6
NtRp2474
(dp2475
g9
I2
sg10
S'/home/daniel/Datasets/ccmixter_corpus/Javolenus_-_King_Henry_(Border_Ballad)/source-02.wav'
p2476
sg12
F315.06285700000001
sg13
I44100
sbtp2477
a(g4
(g5
g6
NtRp2478
(dp2479
g9
I2
sg10
S'/home/daniel/Datasets/ccmixter_corpus/Javolenus_-_You_Don_t_Get_In_Touch_Anymore/mix.wav'
p2480
sg12
F342.54367300000001
sg13
I44100
sbg4
(g5
g6
NtRp2481
(dp2482
g9
I2
sg10
S'/home/daniel/Datasets/ccmixter_corpus/Javolenus_-_You_Don_t_Get_In_Touch_Anymore/source-01.wav'
p2483
sg12
F342.54367300000001
sg13
I44100
sbg4
(g5
g6
NtRp2484
(dp2485
g9
I2
sg10
S'/home/daniel/Datasets/ccmixter_corpus/Javolenus_-_You_Don_t_Get_In_Touch_Anymore/source-02.wav'
p2486
sg12
F342.54367300000001
sg13
I44100
sbtp2487
a(g4
(g5
g6
NtRp2488
(dp2489
g9
I2
sg10
S'/home/daniel/Datasets/ccmixter_corpus/Kamihamiha_-_A_Spatial_Voyage_From_A_To_B_(Stems)/mix.wav'
p2490
sg12
F175.13852600000001
sg13
I44100
sbg4
(g5
g6
NtRp2491
(dp2492
g9
I2
sg10
S'/home/daniel/Datasets/ccmixter_corpus/Kamihamiha_-_A_Spatial_Voyage_From_A_To_B_(Stems)/source-01.wav'
p2493
sg12
F175.13852600000001
sg13
I44100
sbg4
(g5
g6
NtRp2494
(dp2495
g9
I2
sg10
S'/home/daniel/Datasets/ccmixter_corpus/Kamihamiha_-_A_Spatial_Voyage_From_A_To_B_(Stems)/source-02.wav'
p2496
sg12
F175.13852600000001
sg13
I44100
sbtp2497
a(g4
(g5
g6
NtRp2498
(dp2499
g9
I2
sg10
S'/home/daniel/Datasets/ccmixter_corpus/Kamihamiha_-_Kamihamiha_-_No_Peace_For_The_Middle_East_(Full_Stems)/mix.wav'
p2500
sg12
F206.811429
sg13
I44100
sbg4
(g5
g6
NtRp2501
(dp2502
g9
I2
sg10
S'/home/daniel/Datasets/ccmixter_corpus/Kamihamiha_-_Kamihamiha_-_No_Peace_For_The_Middle_East_(Full_Stems)/source-01.wav'
p2503
sg12
F206.811429
sg13
I44100
sbg4
(g5
g6
NtRp2504
(dp2505
g9
I2
sg10
S'/home/daniel/Datasets/ccmixter_corpus/Kamihamiha_-_Kamihamiha_-_No_Peace_For_The_Middle_East_(Full_Stems)/source-02.wav'
p2506
sg12
F206.811429
sg13
I44100
sbtp2507
a(g4
(g5
g6
NtRp2508
(dp2509
g9
I2
sg10
S'/home/daniel/Datasets/ccmixter_corpus/Kamihamiha_-_Kamihamiha_-_Trash_The_Disco_(Stems)/mix.wav'
p2510
sg12
F219.480816
sg13
I44100
sbg4
(g5
g6
NtRp2511
(dp2512
g9
I2
sg10
S'/home/daniel/Datasets/ccmixter_corpus/Kamihamiha_-_Kamihamiha_-_Trash_The_Disco_(Stems)/source-01.wav'
p2513
sg12
F219.480816
sg13
I44100
sbg4
(g5
g6
NtRp2514
(dp2515
g9
I2
sg10
S'/home/daniel/Datasets/ccmixter_corpus/Kamihamiha_-_Kamihamiha_-_Trash_The_Disco_(Stems)/source-02.wav'
p2516
sg12
F219.480816
sg13
I44100
sbtp2517
a(g4
(g5
g6
NtRp2518
(dp2519
g9
I2
sg10
S'/home/daniel/Datasets/ccmixter_corpus/stellarartwars_-_Emma_(Barnstormer_Mix)_inc_stems/mix.wav'
p2520
sg12
F192.07836699999999
sg13
I44100
sbg4
(g5
g6
NtRp2521
(dp2522
g9
I2
sg10
S'/home/daniel/Datasets/ccmixter_corpus/stellarartwars_-_Emma_(Barnstormer_Mix)_inc_stems/source-01.wav'
p2523
sg12
F192.07836699999999
sg13
I44100
sbg4
(g5
g6
NtRp2524
(dp2525
g9
I2
sg10
S'/home/daniel/Datasets/ccmixter_corpus/stellarartwars_-_Emma_(Barnstormer_Mix)_inc_stems/source-02.wav'
p2526
sg12
F192.07836699999999
sg13
I44100
sbtp2527
a(g4
(g5
g6
NtRp2528
(dp2529
g9
I2
sg10
S'/home/daniel/Datasets/ccmixter_corpus/stellarartwars_-_Finally_Found_(Dense_Robin_Mix)/mix.wav'
p2530
sg12
F206.08000000000001
sg13
I44100
sbg4
(g5
g6
NtRp2531
(dp2532
g9
I2
sg10
S'/home/daniel/Datasets/ccmixter_corpus/stellarartwars_-_Finally_Found_(Dense_Robin_Mix)/source-01.wav'
p2533
sg12
F206.08000000000001
sg13
I44100
sbg4
(g5
g6
NtRp2534
(dp2535
g9
I2
sg10
S'/home/daniel/Datasets/ccmixter_corpus/stellarartwars_-_Finally_Found_(Dense_Robin_Mix)/source-02.wav'
p2536
sg12
F206.08000000000001
sg13
I44100
sbtp2537
a(g4
(g5
g6
NtRp2538
(dp2539
g9
I2
sg10
S'/home/daniel/Datasets/ccmixter_corpus/stellarartwars_-_Go_Time_(scratched_perversion_mix)_inc_stems/mix.wav'
p2540
sg12
F327.20979599999998
sg13
I44100
sbg4
(g5
g6
NtRp2541
(dp2542
g9
I2
sg10
S'/home/daniel/Datasets/ccmixter_corpus/stellarartwars_-_Go_Time_(scratched_perversion_mix)_inc_stems/source-01.wav'
p2543
sg12
F327.20979599999998
sg13
I44100
sbg4
(g5
g6
NtRp2544
(dp2545
g9
I2
sg10
S'/home/daniel/Datasets/ccmixter_corpus/stellarartwars_-_Go_Time_(scratched_perversion_mix)_inc_stems/source-02.wav'
p2546
sg12
F327.20979599999998
sg13
I44100
sbtp2547
a(g4
(g5
g6
NtRp2548
(dp2549
g9
I2
sg10
S'/home/daniel/Datasets/ccmixter_corpus/stellarartwars_-_Human_Race_(A_Rotten_Race_For_Elvis_Mix)_inc_stems/mix.wav'
p2550
sg12
F185.234286
sg13
I44100
sbg4
(g5
g6
NtRp2551
(dp2552
g9
I2
sg10
S'/home/daniel/Datasets/ccmixter_corpus/stellarartwars_-_Human_Race_(A_Rotten_Race_For_Elvis_Mix)_inc_stems/source-01.wav'
p2553
sg12
F185.234286
sg13
I44100
sbg4
(g5
g6
NtRp2554
(dp2555
g9
I2
sg10
S'/home/daniel/Datasets/ccmixter_corpus/stellarartwars_-_Human_Race_(A_Rotten_Race_For_Elvis_Mix)_inc_stems/source-02.wav'
p2556
sg12
F185.234286
sg13
I44100
sbtp2557
a(g4
(g5
g6
NtRp2558
(dp2559
g9
I2
sg10
S'/home/daniel/Datasets/ccmixter_corpus/stellarartwars_-_I_Will_Follow_(Rachel_s_Revenge_Mix)_inc_stems/mix.wav'
p2560
sg12
F226.868413
sg13
I44100
sbg4
(g5
g6
NtRp2561
(dp2562
g9
I2
sg10
S'/home/daniel/Datasets/ccmixter_corpus/stellarartwars_-_I_Will_Follow_(Rachel_s_Revenge_Mix)_inc_stems/source-01.wav'
p2563
sg12
F226.868413
sg13
I44100
sbg4
(g5
g6
NtRp2564
(dp2565
g9
I2
sg10
S'/home/daniel/Datasets/ccmixter_corpus/stellarartwars_-_I_Will_Follow_(Rachel_s_Revenge_Mix)_inc_stems/source-02.wav'
p2566
sg12
F226.868413
sg13
I44100
sbtp2567
a(g4
(g5
g6
NtRp2568
(dp2569
g9
I2
sg10
S'/home/daniel/Datasets/ccmixter_corpus/stellarartwars_-_Love_Liberation_(inc_stems)/mix.wav'
p2570
sg12
F189.67510200000001
sg13
I44100
sbg4
(g5
g6
NtRp2571
(dp2572
g9
I2
sg10
S'/home/daniel/Datasets/ccmixter_corpus/stellarartwars_-_Love_Liberation_(inc_stems)/source-01.wav'
p2573
sg12
F189.67510200000001
sg13
I44100
sbg4
(g5
g6
NtRp2574
(dp2575
g9
I2
sg10
S'/home/daniel/Datasets/ccmixter_corpus/stellarartwars_-_Love_Liberation_(inc_stems)/source-02.wav'
p2576
sg12
F189.67510200000001
sg13
I44100
sbtp2577
a(g4
(g5
g6
NtRp2578
(dp2579
g9
I2
sg10
S'/home/daniel/Datasets/ccmixter_corpus/stellarartwars_-_Lucky_Boy_(Rampton_Hill_Mix)_inc_stems/mix.wav'
p2580
sg12
F176.666122
sg13
I44100
sbg4
(g5
g6
NtRp2581
(dp2582
g9
I2
sg10
S'/home/daniel/Datasets/ccmixter_corpus/stellarartwars_-_Lucky_Boy_(Rampton_Hill_Mix)_inc_stems/source-01.wav'
p2583
sg12
F176.666122
sg13
I44100
sbg4
(g5
g6
NtRp2584
(dp2585
g9
I2
sg10
S'/home/daniel/Datasets/ccmixter_corpus/stellarartwars_-_Lucky_Boy_(Rampton_Hill_Mix)_inc_stems/source-02.wav'
p2586
sg12
F176.666122
sg13
I44100
sbtp2587
a(g4
(g5
g6
NtRp2588
(dp2589
g9
I2
sg10
S'/home/daniel/Datasets/ccmixter_corpus/stellarartwars_-_Music/mix.wav'
p2590
sg12
F347.21959199999998
sg13
I44100
sbg4
(g5
g6
NtRp2591
(dp2592
g9
I2
sg10
S'/home/daniel/Datasets/ccmixter_corpus/stellarartwars_-_Music/source-01.wav'
p2593
sg12
F347.21959199999998
sg13
I44100
sbg4
(g5
g6
NtRp2594
(dp2595
g9
I2
sg10
S'/home/daniel/Datasets/ccmixter_corpus/stellarartwars_-_Music/source-02.wav'
p2596
sg12
F347.21959199999998
sg13
I44100
sbtp2597
a(g4
(g5
g6
NtRp2598
(dp2599
g9
I2
sg10
S'/home/daniel/Datasets/ccmixter_corpus/stellarartwars_-_Occupy_Walk_(Molested_Mix)/mix.wav'
p2600
sg12
F191.270454
sg13
I44100
sbg4
(g5
g6
NtRp2601
(dp2602
g9
I2
sg10
S'/home/daniel/Datasets/ccmixter_corpus/stellarartwars_-_Occupy_Walk_(Molested_Mix)/source-01.wav'
p2603
sg12
F191.270454
sg13
I44100
sbg4
(g5
g6
NtRp2604
(dp2605
g9
I2
sg10
S'/home/daniel/Datasets/ccmixter_corpus/stellarartwars_-_Occupy_Walk_(Molested_Mix)/source-02.wav'
p2606
sg12
F191.270454
sg13
I44100
sbtp2607
a(g4
(g5
g6
NtRp2608
(dp2609
g9
I2
sg10
S'/home/daniel/Datasets/ccmixter_corpus/stellarartwars_-_On_A_Silent_Night/mix.wav'
p2610
sg12
F291.48918400000002
sg13
I44100
sbg4
(g5
g6
NtRp2611
(dp2612
g9
I2
sg10
S'/home/daniel/Datasets/ccmixter_corpus/stellarartwars_-_On_A_Silent_Night/source-01.wav'
p2613
sg12
F291.48918400000002
sg13
I44100
sbg4
(g5
g6
NtRp2614
(dp2615
g9
I2
sg10
S'/home/daniel/Datasets/ccmixter_corpus/stellarartwars_-_On_A_Silent_Night/source-02.wav'
p2616
sg12
F291.48918400000002
sg13
I44100
sbtp2617
a(g4
(g5
g6
NtRp2618
(dp2619
g9
I2
sg10
S'/home/daniel/Datasets/ccmixter_corpus/stellarartwars_-_Orange_(I_m_In_The_Mood_For_Trancing_Mix)/mix.wav'
p2620
sg12
F267.51999999999998
sg13
I44100
sbg4
(g5
g6
NtRp2621
(dp2622
g9
I2
sg10
S'/home/daniel/Datasets/ccmixter_corpus/stellarartwars_-_Orange_(I_m_In_The_Mood_For_Trancing_Mix)/source-01.wav'
p2623
sg12
F267.51999999999998
sg13
I44100
sbg4
(g5
g6
NtRp2624
(dp2625
g9
I2
sg10
S'/home/daniel/Datasets/ccmixter_corpus/stellarartwars_-_Orange_(I_m_In_The_Mood_For_Trancing_Mix)/source-02.wav'
p2626
sg12
F267.51999999999998
sg13
I44100
sbtp2627
a(g4
(g5
g6
NtRp2628
(dp2629
g9
I2
sg10
S'/home/daniel/Datasets/ccmixter_corpus/stellarartwars_-_Perfectly_4_U_(rough_stems)/mix.wav'
p2630
sg12
F96.078367
sg13
I44100
sbg4
(g5
g6
NtRp2631
(dp2632
g9
I2
sg10
S'/home/daniel/Datasets/ccmixter_corpus/stellarartwars_-_Perfectly_4_U_(rough_stems)/source-01.wav'
p2633
sg12
F96.078367
sg13
I44100
sbg4
(g5
g6
NtRp2634
(dp2635
g9
I2
sg10
S'/home/daniel/Datasets/ccmixter_corpus/stellarartwars_-_Perfectly_4_U_(rough_stems)/source-02.wav'
p2636
sg12
F96.078367
sg13
I44100
sbtp2637
a(g4
(g5
g6
NtRp2638
(dp2639
g9
I2
sg10
S'/home/daniel/Datasets/ccmixter_corpus/stellarartwars_-_Square_Bidness_(SAW_Rapperboy_Mix)_stems/mix.wav'
p2640
sg12
F316.63020399999999
sg13
I44100
sbg4
(g5
g6
NtRp2641
(dp2642
g9
I2
sg10
S'/home/daniel/Datasets/ccmixter_corpus/stellarartwars_-_Square_Bidness_(SAW_Rapperboy_Mix)_stems/source-01.wav'
p2643
sg12
F316.63020399999999
sg13
I44100
sbg4
(g5
g6
NtRp2644
(dp2645
g9
I2
sg10
S'/home/daniel/Datasets/ccmixter_corpus/stellarartwars_-_Square_Bidness_(SAW_Rapperboy_Mix)_stems/source-02.wav'
p2646
sg12
F316.63020399999999
sg13
I44100
sbtp2647
a(g4
(g5
g6
NtRp2648
(dp2649
g9
I2
sg10
S'/home/daniel/Datasets/ccmixter_corpus/stellarartwars_-_Sweet_Seduction_2_(Romilar_Mix)/mix.wav'
p2650
sg12
F358.37387799999999
sg13
I44100
sbg4
(g5
g6
NtRp2651
(dp2652
g9
I2
sg10
S'/home/daniel/Datasets/ccmixter_corpus/stellarartwars_-_Sweet_Seduction_2_(Romilar_Mix)/source-01.wav'
p2653
sg12
F358.37387799999999
sg13
I44100
sbg4
(g5
g6
NtRp2654
(dp2655
g9
I2
sg10
S'/home/daniel/Datasets/ccmixter_corpus/stellarartwars_-_Sweet_Seduction_2_(Romilar_Mix)/source-02.wav'
p2656
sg12
F358.37387799999999
sg13
I44100
sbtp2657
a(g4
(g5
g6
NtRp2658
(dp2659
g9
I2
sg10
S'/home/daniel/Datasets/ccmixter_corpus/stellarartwars_-_To_Be_Sensitive_(inc_stems)/mix.wav'
p2660
sg12
F294.08653099999998
sg13
I44100
sbg4
(g5
g6
NtRp2661
(dp2662
g9
I2
sg10
S'/home/daniel/Datasets/ccmixter_corpus/stellarartwars_-_To_Be_Sensitive_(inc_stems)/source-01.wav'
p2663
sg12
F294.08653099999998
sg13
I44100
sbg4
(g5
g6
NtRp2664
(dp2665
g9
I2
sg10
S'/home/daniel/Datasets/ccmixter_corpus/stellarartwars_-_To_Be_Sensitive_(inc_stems)/source-02.wav'
p2666
sg12
F294.08653099999998
sg13
I44100
sbtp2667
a(g4
(g5
g6
NtRp2668
(dp2669
g9
I2
sg10
S'/home/daniel/Datasets/ccmixter_corpus/stellarartwars_-_Winter_Glow_(SAW_liquid_d_b_mix)/mix.wav'
p2670
sg12
F260.88489800000002
sg13
I44100
sbg4
(g5
g6
NtRp2671
(dp2672
g9
I2
sg10
S'/home/daniel/Datasets/ccmixter_corpus/stellarartwars_-_Winter_Glow_(SAW_liquid_d_b_mix)/source-01.wav'
p2673
sg12
F260.88489800000002
sg13
I44100
sbg4
(g5
g6
NtRp2674
(dp2675
g9
I2
sg10
S'/home/daniel/Datasets/ccmixter_corpus/stellarartwars_-_Winter_Glow_(SAW_liquid_d_b_mix)/source-02.wav'
p2676
sg12
F260.88489800000002
sg13
I44100
sbtp2677
a(g4
(g5
g6
NtRp2678
(dp2679
g9
I2
sg10
S'/home/daniel/Datasets/ccmixter_corpus/tmray_-_Forget_It_-_Demo/mix.wav'
p2680
sg12
F193.31483
sg13
I44100
sbg4
(g5
g6
NtRp2681
(dp2682
g9
I2
sg10
S'/home/daniel/Datasets/ccmixter_corpus/tmray_-_Forget_It_-_Demo/source-01.wav'
p2683
sg12
F193.31483
sg13
I44100
sbg4
(g5
g6
NtRp2684
(dp2685
g9
I2
sg10
S'/home/daniel/Datasets/ccmixter_corpus/tmray_-_Forget_It_-_Demo/source-02.wav'
p2686
sg12
F193.31483
sg13
I44100
sbtp2687
a(g4
(g5
g6
NtRp2688
(dp2689
g9
I2
sg10
S'/home/daniel/Datasets/ccmixter_corpus/tmray_-_Roulette/mix.wav'
p2690
sg12
F240.38263000000001
sg13
I44100
sbg4
(g5
g6
NtRp2691
(dp2692
g9
I2
sg10
S'/home/daniel/Datasets/ccmixter_corpus/tmray_-_Roulette/source-01.wav'
p2693
sg12
F240.38263000000001
sg13
I44100
sbg4
(g5
g6
NtRp2694
(dp2695
g9
I2
sg10
S'/home/daniel/Datasets/ccmixter_corpus/tmray_-_Roulette/source-02.wav'
p2696
sg12
F240.38263000000001
sg13
I44100
sbtp2697
a(g4
(g5
g6
NtRp2698
(dp2699
g9
I2
sg10
S'/home/daniel/Datasets/ccmixter_corpus/unreal_dm_-_Big_John (with_snowflake)/mix.wav'
p2700
sg12
F168.94505699999999
sg13
I44100
sbg4
(g5
g6
NtRp2701
(dp2702
g9
I2
sg10
S'/home/daniel/Datasets/ccmixter_corpus/unreal_dm_-_Big_John (with_snowflake)/source-01.wav'
p2703
sg12
F168.94505699999999
sg13
I44100
sbg4
(g5
g6
NtRp2704
(dp2705
g9
I2
sg10
S'/home/daniel/Datasets/ccmixter_corpus/unreal_dm_-_Big_John (with_snowflake)/source-02.wav'
p2706
sg12
F168.94505699999999
sg13
I44100
sbtp2707
a(g4
(g5
g6
NtRp2708
(dp2709
g9
I2
sg10
S'/home/daniel/Datasets/ccmixter_corpus/unreal_dm_-_Californian_Winter/mix.wav'
p2710
sg12
F200.11675700000001
sg13
I44100
sbg4
(g5
g6
NtRp2711
(dp2712
g9
I2
sg10
S'/home/daniel/Datasets/ccmixter_corpus/unreal_dm_-_Californian_Winter/source-01.wav'
p2713
sg12
F200.11675700000001
sg13
I44100
sbg4
(g5
g6
NtRp2714
(dp2715
g9
I2
sg10
S'/home/daniel/Datasets/ccmixter_corpus/unreal_dm_-_Californian_Winter/source-02.wav'
p2716
sg12
F200.11675700000001
sg13
I44100
sbtp2717
a(g4
(g5
g6
NtRp2718
(dp2719
g9
I2
sg10
S'/home/daniel/Datasets/ccmixter_corpus/unreal_dm_-_Jerusalem/mix.wav'
p2720
sg12
F263.54938800000002
sg13
I44100
sbg4
(g5
g6
NtRp2721
(dp2722
g9
I2
sg10
S'/home/daniel/Datasets/ccmixter_corpus/unreal_dm_-_Jerusalem/source-01.wav'
p2723
sg12
F263.54938800000002
sg13
I44100
sbg4
(g5
g6
NtRp2724
(dp2725
g9
I2
sg10
S'/home/daniel/Datasets/ccmixter_corpus/unreal_dm_-_Jerusalem/source-02.wav'
p2726
sg12
F263.54938800000002
sg13
I44100
sbtp2727
a(g4
(g5
g6
NtRp2728
(dp2729
g9
I2
sg10
S'/home/daniel/Datasets/ccmixter_corpus/unreal_dm_-_Just_Beginning/mix.wav'
p2730
sg12
F212.47999999999999
sg13
I44100
sbg4
(g5
g6
NtRp2731
(dp2732
g9
I2
sg10
S'/home/daniel/Datasets/ccmixter_corpus/unreal_dm_-_Just_Beginning/source-01.wav'
p2733
sg12
F212.47999999999999
sg13
I44100
sbg4
(g5
g6
NtRp2734
(dp2735
g9
I2
sg10
S'/home/daniel/Datasets/ccmixter_corpus/unreal_dm_-_Just_Beginning/source-02.wav'
p2736
sg12
F212.47999999999999
sg13
I44100
sbtp2737
a(g4
(g5
g6
NtRp2738
(dp2739
g9
I2
sg10
S'/home/daniel/Datasets/ccmixter_corpus/VJ_Memes_-_What_Child_is_This_(With_Admiral_Bob)/mix.wav'
p2740
sg12
F182.96163300000001
sg13
I44100
sbg4
(g5
g6
NtRp2741
(dp2742
g9
I2
sg10
S'/home/daniel/Datasets/ccmixter_corpus/VJ_Memes_-_What_Child_is_This_(With_Admiral_Bob)/source-01.wav'
p2743
sg12
F182.96163300000001
sg13
I44100
sbg4
(g5
g6
NtRp2744
(dp2745
g9
I2
sg10
S'/home/daniel/Datasets/ccmixter_corpus/VJ_Memes_-_What_Child_is_This_(With_Admiral_Bob)/source-02.wav'
p2746
sg12
F182.96163300000001
sg13
I44100
sbtp2747
a(g4
(g5
g6
NtRp2748
(dp2749
g9
I2
sg10
S'/home/daniel/Datasets/ccmixter_corpus/VonKorf_-_Marktversagen/mix.wav'
p2750
sg12
F336.937029
sg13
I44100
sbg4
(g5
g6
NtRp2751
(dp2752
g9
I2
sg10
S'/home/daniel/Datasets/ccmixter_corpus/VonKorf_-_Marktversagen/source-01.wav'
p2753
sg12
F336.937029
sg13
I44100
sbg4
(g5
g6
NtRp2754
(dp2755
g9
I2
sg10
S'/home/daniel/Datasets/ccmixter_corpus/VonKorf_-_Marktversagen/source-02.wav'
p2756
sg12
F336.937029
sg13
I44100
sbtp2757
a(g4
(g5
g6
NtRp2758
(dp2759
g9
I2
sg10
S'/home/daniel/Datasets/ccmixter_corpus/mindmapthat_-_Not_So_Happy_Holidays/mix.wav'
p2760
sg12
F216
sg13
I44100
sbg4
(g5
g6
NtRp2761
(dp2762
g9
I2
sg10
S'/home/daniel/Datasets/ccmixter_corpus/mindmapthat_-_Not_So_Happy_Holidays/source-01.wav'
p2763
sg12
F216
sg13
I44100
sbg4
(g5
g6
NtRp2764
(dp2765
g9
I2
sg10
S'/home/daniel/Datasets/ccmixter_corpus/mindmapthat_-_Not_So_Happy_Holidays/source-02.wav'
p2766
sg12
F216
sg13
I44100
sbtp2767
a(g4
(g5
g6
NtRp2768
(dp2769
g9
I2
sg10
S'/home/daniel/Datasets/ccmixter_corpus/stellarartwars_-_Elements_(_stems)/mix.wav'
p2770
sg12
F284.65632699999998
sg13
I44100
sbg4
(g5
g6
NtRp2771
(dp2772
g9
I2
sg10
S'/home/daniel/Datasets/ccmixter_corpus/stellarartwars_-_Elements_(_stems)/source-01.wav'
p2773
sg12
F284.65632699999998
sg13
I44100
sbg4
(g5
g6
NtRp2774
(dp2775
g9
I2
sg10
S'/home/daniel/Datasets/ccmixter_corpus/stellarartwars_-_Elements_(_stems)/source-02.wav'
p2776
sg12
F284.65632699999998
sg13
I44100
sbtp2777
a(g4
(g5
g6
NtRp2778
(dp2779
g9
I2
sg10
S'/home/daniel/Datasets/ccmixter_corpus/stellarartwars_-_Pheromones_(slightly_retro_happy_mix)_stems/mix.wav'
p2780
sg12
F215.877937
sg13
I44100
sbg4
(g5
g6
NtRp2781
(dp2782
g9
I2
sg10
S'/home/daniel/Datasets/ccmixter_corpus/stellarartwars_-_Pheromones_(slightly_retro_happy_mix)_stems/source-01.wav'
p2783
sg12
F215.877937
sg13
I44100
sbg4
(g5
g6
NtRp2784
(dp2785
g9
I2
sg10
S'/home/daniel/Datasets/ccmixter_corpus/stellarartwars_-_Pheromones_(slightly_retro_happy_mix)_stems/source-02.wav'
p2786
sg12
F215.877937
sg13
I44100
sbtp2787
a(g4
(g5
g6
NtRp2788
(dp2789
g9
I1
sg10
S'/home/daniel/Datasets/ccmixter_corpus/mindmapthat_-_The_Scuffle_of_Mouth_Sounds_and_the_Magnificent_Uke/mix.wav'
p2790
sg12
F105.499274
sg13
I44100
sbg4
(g5
g6
NtRp2791
(dp2792
g9
I1
sg10
S'/home/daniel/Datasets/ccmixter_corpus/mindmapthat_-_The_Scuffle_of_Mouth_Sounds_and_the_Magnificent_Uke/source-01.wav'
p2793
sg12
F105.499274
sg13
I44100
sbg4
(g5
g6
NtRp2794
(dp2795
g9
I1
sg10
S'/home/daniel/Datasets/ccmixter_corpus/mindmapthat_-_The_Scuffle_of_Mouth_Sounds_and_the_Magnificent_Uke/source-02.wav'
p2796
sg12
F105.499274
sg13
I44100
sbtp2797
a(g4
(g5
g6
NtRp2798
(dp2799
g9
I2
sg10
S'/home/daniel/Datasets/ccmixter_corpus/Mr_Yesterday_-_King_Richard_s_Blues_(harp_added)/mix.wav'
p2800
sg12
F380.45389999999998
sg13
I44100
sbg4
(g5
g6
NtRp2801
(dp2802
g9
I2
sg10
S'/home/daniel/Datasets/ccmixter_corpus/Mr_Yesterday_-_King_Richard_s_Blues_(harp_added)/source-01.wav'
p2803
sg12
F380.45389999999998
sg13
I44100
sbg4
(g5
g6
NtRp2804
(dp2805
g9
I2
sg10
S'/home/daniel/Datasets/ccmixter_corpus/Mr_Yesterday_-_King_Richard_s_Blues_(harp_added)/source-02.wav'
p2806
sg12
F380.45389999999998
sg13
I44100
sbtp2807
a(g4
(g5
g6
NtRp2808
(dp2809
g9
I2
sg10
S'/home/daniel/Datasets/ccmixter_corpus/Nikmusik_-_Little_White_Lies/mix.wav'
p2810
sg12
F204.094694
sg13
I44100
sbg4
(g5
g6
NtRp2811
(dp2812
g9
I2
sg10
S'/home/daniel/Datasets/ccmixter_corpus/Nikmusik_-_Little_White_Lies/source-01.wav'
p2813
sg12
F204.094694
sg13
I44100
sbg4
(g5
g6
NtRp2814
(dp2815
g9
I2
sg10
S'/home/daniel/Datasets/ccmixter_corpus/Nikmusik_-_Little_White_Lies/source-02.wav'
p2816
sg12
F204.094694
sg13
I44100
sbtp2817
a(g4
(g5
g6
NtRp2818
(dp2819
g9
I2
sg10
S'/home/daniel/Datasets/ccmixter_corpus/Per_-_Orange_(Room_29_MMXIII)/mix.wav'
p2820
sg12
F241.737143
sg13
I44100
sbg4
(g5
g6
NtRp2821
(dp2822
g9
I2
sg10
S'/home/daniel/Datasets/ccmixter_corpus/Per_-_Orange_(Room_29_MMXIII)/source-01.wav'
p2823
sg12
F241.737143
sg13
I44100
sbg4
(g5
g6
NtRp2824
(dp2825
g9
I2
sg10
S'/home/daniel/Datasets/ccmixter_corpus/Per_-_Orange_(Room_29_MMXIII)/source-02.wav'
p2826
sg12
F241.737143
sg13
I44100
sbtp2827
a(g4
(g5
g6
NtRp2828
(dp2829
g9
I2
sg10
S'/home/daniel/Datasets/ccmixter_corpus/stellarartwars_-_Amy_Winehouse_Blues_(stems)/mix.wav'
p2830
sg12
F235.697506
sg13
I44100
sbg4
(g5
g6
NtRp2831
(dp2832
g9
I2
sg10
S'/home/daniel/Datasets/ccmixter_corpus/stellarartwars_-_Amy_Winehouse_Blues_(stems)/source-01.wav'
p2833
sg12
F235.697506
sg13
I44100
sbg4
(g5
g6
NtRp2834
(dp2835
g9
I2
sg10
S'/home/daniel/Datasets/ccmixter_corpus/stellarartwars_-_Amy_Winehouse_Blues_(stems)/source-02.wav'
p2836
sg12
F235.697506
sg13
I44100
sbtp2837
a(g4
(g5
g6
NtRp2838
(dp2839
g9
I2
sg10
S'/home/daniel/Datasets/ccmixter_corpus/stellarartwars_-_A_Forest_(Crimson_Lizard_Mix)_stems/mix.wav'
p2840
sg12
F456.097959
sg13
I44100
sbg4
(g5
g6
NtRp2841
(dp2842
g9
I2
sg10
S'/home/daniel/Datasets/ccmixter_corpus/stellarartwars_-_A_Forest_(Crimson_Lizard_Mix)_stems/source-01.wav'
p2843
sg12
F456.097959
sg13
I44100
sbg4
(g5
g6
NtRp2844
(dp2845
g9
I2
sg10
S'/home/daniel/Datasets/ccmixter_corpus/stellarartwars_-_A_Forest_(Crimson_Lizard_Mix)_stems/source-02.wav'
p2846
sg12
F456.097959
sg13
I44100
sbtp2847
a(g4
(g5
g6
NtRp2848
(dp2849
g9
I2
sg10
S'/home/daniel/Datasets/ccmixter_corpus/stellarartwars_-_Bird_(_stems)/mix.wav'
p2850
sg12
F216.44210899999999
sg13
I44100
sbg4
(g5
g6
NtRp2851
(dp2852
g9
I2
sg10
S'/home/daniel/Datasets/ccmixter_corpus/stellarartwars_-_Bird_(_stems)/source-01.wav'
p2853
sg12
F216.44210899999999
sg13
I44100
sbg4
(g5
g6
NtRp2854
(dp2855
g9
I2
sg10
S'/home/daniel/Datasets/ccmixter_corpus/stellarartwars_-_Bird_(_stems)/source-02.wav'
p2856
sg12
F216.44210899999999
sg13
I44100
sbtp2857
a(g4
(g5
g6
NtRp2858
(dp2859
g9
I2
sg10
S'/home/daniel/Datasets/ccmixter_corpus/stellarartwars_-_black_swan_(10_out_of_10_mix)_stems/mix.wav'
p2860
sg12
F195.52653100000001
sg13
I44100
sbg4
(g5
g6
NtRp2861
(dp2862
g9
I2
sg10
S'/home/daniel/Datasets/ccmixter_corpus/stellarartwars_-_black_swan_(10_out_of_10_mix)_stems/source-01.wav'
p2863
sg12
F195.52653100000001
sg13
I44100
sbg4
(g5
g6
NtRp2864
(dp2865
g9
I2
sg10
S'/home/daniel/Datasets/ccmixter_corpus/stellarartwars_-_black_swan_(10_out_of_10_mix)_stems/source-02.wav'
p2866
sg12
F195.52653100000001
sg13
I44100
sbtp2867
a(g4
(g5
g6
NtRp2868
(dp2869
g9
I2
sg10
S'/home/daniel/Datasets/ccmixter_corpus/stellarartwars_-_Breakdown_Boy_(SAW_mix)/mix.wav'
p2870
sg12
F212.08816300000001
sg13
I44100
sbg4
(g5
g6
NtRp2871
(dp2872
g9
I2
sg10
S'/home/daniel/Datasets/ccmixter_corpus/stellarartwars_-_Breakdown_Boy_(SAW_mix)/source-01.wav'
p2873
sg12
F212.08816300000001
sg13
I44100
sbg4
(g5
g6
NtRp2874
(dp2875
g9
I2
sg10
S'/home/daniel/Datasets/ccmixter_corpus/stellarartwars_-_Breakdown_Boy_(SAW_mix)/source-02.wav'
p2876
sg12
F212.08816300000001
sg13
I44100
sbtp2877
a(g4
(g5
g6
NtRp2878
(dp2879
g9
I2
sg10
S'/home/daniel/Datasets/ccmixter_corpus/stellarartwars_-_Dollar_(Nice_Spicy_Mix)_stems/mix.wav'
p2880
sg12
F188.656327
sg13
I44100
sbg4
(g5
g6
NtRp2881
(dp2882
g9
I2
sg10
S'/home/daniel/Datasets/ccmixter_corpus/stellarartwars_-_Dollar_(Nice_Spicy_Mix)_stems/source-01.wav'
p2883
sg12
F188.656327
sg13
I44100
sbg4
(g5
g6
NtRp2884
(dp2885
g9
I2
sg10
S'/home/daniel/Datasets/ccmixter_corpus/stellarartwars_-_Dollar_(Nice_Spicy_Mix)_stems/source-02.wav'
p2886
sg12
F188.656327
sg13
I44100
sbtp2887
asS'valid'
p2888
(lp2889
(g4
(g5
g6
NtRp2890
(dp2891
g9
I2
sg10
V/mnt/disks/datasets/musdb18/train/ANiMAL - Easy Tiger.stem_mix.wav
p2892
sg12
I205
sg13
I44100
sbg4
(g5
g6
NtRp2893
(dp2894
g9
I2
sg10
V/mnt/disks/datasets/musdb18/train/ANiMAL - Easy Tiger.stem_accompaniment.wav
p2895
sg12
I205
sg13
I44100
sbg4
(g5
g6
NtRp2896
(dp2897
g9
I2
sg10
V/mnt/disks/datasets/musdb18/train/ANiMAL - Easy Tiger.stem_bass.wav
p2898
sg12
I205
sg13
I44100
sbg4
(g5
g6
NtRp2899
(dp2900
g9
I2
sg10
V/mnt/disks/datasets/musdb18/train/ANiMAL - Easy Tiger.stem_drums.wav
p2901
sg12
I205
sg13
I44100
sbg4
(g5
g6
NtRp2902
(dp2903
g9
I2
sg10
V/mnt/disks/datasets/musdb18/train/ANiMAL - Easy Tiger.stem_other.wav
p2904
sg12
I205
sg13
I44100
sbg4
(g5
g6
NtRp2905
(dp2906
g9
I2
sg10
V/mnt/disks/datasets/musdb18/train/ANiMAL - Easy Tiger.stem_vocals.wav
p2907
sg12
I205
sg13
I44100
sbtp2908
a(g4
(g5
g6
NtRp2909
(dp2910
g9
I2
sg10
V/mnt/disks/datasets/musdb18/train/Leaf - Summerghost.stem_mix.wav
p2911
sg12
I231
sg13
I44100
sbg4
(g5
g6
NtRp2912
(dp2913
g9
I2
sg10
V/mnt/disks/datasets/musdb18/train/Leaf - Summerghost.stem_accompaniment.wav
p2914
sg12
I231
sg13
I44100
sbg4
(g5
g6
NtRp2915
(dp2916
g9
I2
sg10
V/mnt/disks/datasets/musdb18/train/Leaf - Summerghost.stem_bass.wav
p2917
sg12
I231
sg13
I44100
sbg4
(g5
g6
NtRp2918
(dp2919
g9
I2
sg10
V/mnt/disks/datasets/musdb18/train/Leaf - Summerghost.stem_drums.wav
p2920
sg12
I231
sg13
I44100
sbg4
(g5
g6
NtRp2921
(dp2922
g9
I2
sg10
V/mnt/disks/datasets/musdb18/train/Leaf - Summerghost.stem_other.wav
p2923
sg12
I231
sg13
I44100
sbg4
(g5
g6
NtRp2924
(dp2925
g9
I2
sg10
V/mnt/disks/datasets/musdb18/train/Leaf - Summerghost.stem_vocals.wav
p2926
sg12
I231
sg13
I44100
sbtp2927
a(g4
(g5
g6
NtRp2928
(dp2929
g9
I2
sg10
V/mnt/disks/datasets/musdb18/train/The Scarlet Brand - Les Fleurs Du Mal.stem_mix.wav
p2930
sg12
I303
sg13
I44100
sbg4
(g5
g6
NtRp2931
(dp2932
g9
I2
sg10
V/mnt/disks/datasets/musdb18/train/The Scarlet Brand - Les Fleurs Du Mal.stem_accompaniment.wav
p2933
sg12
I303
sg13
I44100
sbg4
(g5
g6
NtRp2934
(dp2935
g9
I2
sg10
V/mnt/disks/datasets/musdb18/train/The Scarlet Brand - Les Fleurs Du Mal.stem_bass.wav
p2936
sg12
I303
sg13
I44100
sbg4
(g5
g6
NtRp2937
(dp2938
g9
I2
sg10
V/mnt/disks/datasets/musdb18/train/The Scarlet Brand - Les Fleurs Du Mal.stem_drums.wav
p2939
sg12
I303
sg13
I44100
sbg4
(g5
g6
NtRp2940
(dp2941
g9
I2
sg10
V/mnt/disks/datasets/musdb18/train/The Scarlet Brand - Les Fleurs Du Mal.stem_other.wav
p2942
sg12
I303
sg13
I44100
sbg4
(g5
g6
NtRp2943
(dp2944
g9
I2
sg10
V/mnt/disks/datasets/musdb18/train/The Scarlet Brand - Les Fleurs Du Mal.stem_vocals.wav
p2945
sg12
I303
sg13
I44100
sbtp2946
a(g4
(g5
g6
NtRp2947
(dp2948
g9
I2
sg10
V/mnt/disks/datasets/musdb18/train/Johnny Lokke - Promises & Lies.stem_mix.wav
p2949
sg12
I285
sg13
I44100
sbg4
(g5
g6
NtRp2950
(dp2951
g9
I2
sg10
V/mnt/disks/datasets/musdb18/train/Johnny Lokke - Promises & Lies.stem_accompaniment.wav
p2952
sg12
I285
sg13
I44100
sbg4
(g5
g6
NtRp2953
(dp2954
g9
I2
sg10
V/mnt/disks/datasets/musdb18/train/Johnny Lokke - Promises & Lies.stem_bass.wav
p2955
sg12
I285
sg13
I44100
sbg4
(g5
g6
NtRp2956
(dp2957
g9
I2
sg10
V/mnt/disks/datasets/musdb18/train/Johnny Lokke - Promises & Lies.stem_drums.wav
p2958
sg12
I285
sg13
I44100
sbg4
(g5
g6
NtRp2959
(dp2960
g9
I2
sg10
V/mnt/disks/datasets/musdb18/train/Johnny Lokke - Promises & Lies.stem_other.wav
p2961
sg12
I285
sg13
I44100
sbg4
(g5
g6
NtRp2962
(dp2963
g9
I2
sg10
V/mnt/disks/datasets/musdb18/train/Johnny Lokke - Promises & Lies.stem_vocals.wav
p2964
sg12
I285
sg13
I44100
sbtp2965
a(g4
(g5
g6
NtRp2966
(dp2967
g9
I2
sg10
V/mnt/disks/datasets/musdb18/train/Music Delta - Disco.stem_mix.wav
p2968
sg12
I124
sg13
I44100
sbg4
(g5
g6
NtRp2969
(dp2970
g9
I2
sg10
V/mnt/disks/datasets/musdb18/train/Music Delta - Disco.stem_accompaniment.wav
p2971
sg12
I124
sg13
I44100
sbg4
(g5
g6
NtRp2972
(dp2973
g9
I2
sg10
V/mnt/disks/datasets/musdb18/train/Music Delta - Disco.stem_bass.wav
p2974
sg12
I124
sg13
I44100
sbg4
(g5
g6
NtRp2975
(dp2976
g9
I2
sg10
V/mnt/disks/datasets/musdb18/train/Music Delta - Disco.stem_drums.wav
p2977
sg12
I124
sg13
I44100
sbg4
(g5
g6
NtRp2978
(dp2979
g9
I2
sg10
V/mnt/disks/datasets/musdb18/train/Music Delta - Disco.stem_other.wav
p2980
sg12
I124
sg13
I44100
sbg4
(g5
g6
NtRp2981
(dp2982
g9
I2
sg10
V/mnt/disks/datasets/musdb18/train/Music Delta - Disco.stem_vocals.wav
p2983
sg12
I124
sg13
I44100
sbtp2984
a(g4
(g5
g6
NtRp2985
(dp2986
g9
I2
sg10
V/mnt/disks/datasets/musdb18/train/Music Delta - Britpop.stem_mix.wav
p2987
sg12
I36
sg13
I44100
sbg4
(g5
g6
NtRp2988
(dp2989
g9
I2
sg10
V/mnt/disks/datasets/musdb18/train/Music Delta - Britpop.stem_accompaniment.wav
p2990
sg12
I36
sg13
I44100
sbg4
(g5
g6
NtRp2991
(dp2992
g9
I2
sg10
V/mnt/disks/datasets/musdb18/train/Music Delta - Britpop.stem_bass.wav
p2993
sg12
I36
sg13
I44100
sbg4
(g5
g6
NtRp2994
(dp2995
g9
I2
sg10
V/mnt/disks/datasets/musdb18/train/Music Delta - Britpop.stem_drums.wav
p2996
sg12
I36
sg13
I44100
sbg4
(g5
g6
NtRp2997
(dp2998
g9
I2
sg10
V/mnt/disks/datasets/musdb18/train/Music Delta - Britpop.stem_other.wav
p2999
sg12
I36
sg13
I44100
sbg4
(g5
g6
NtRp3000
(dp3001
g9
I2
sg10
V/mnt/disks/datasets/musdb18/train/Music Delta - Britpop.stem_vocals.wav
p3002
sg12
I36
sg13
I44100
sbtp3003
a(g4
(g5
g6
NtRp3004
(dp3005
g9
I2
sg10
V/mnt/disks/datasets/musdb18/train/St Vitus - Word Gets Around.stem_mix.wav
p3006
sg12
I247
sg13
I44100
sbg4
(g5
g6
NtRp3007
(dp3008
g9
I2
sg10
V/mnt/disks/datasets/musdb18/train/St Vitus - Word Gets Around.stem_accompaniment.wav
p3009
sg12
I247
sg13
I44100
sbg4
(g5
g6
NtRp3010
(dp3011
g9
I2
sg10
V/mnt/disks/datasets/musdb18/train/St Vitus - Word Gets Around.stem_bass.wav
p3012
sg12
I247
sg13
I44100
sbg4
(g5
g6
NtRp3013
(dp3014
g9
I2
sg10
V/mnt/disks/datasets/musdb18/train/St Vitus - Word Gets Around.stem_drums.wav
p3015
sg12
I247
sg13
I44100
sbg4
(g5
g6
NtRp3016
(dp3017
g9
I2
sg10
V/mnt/disks/datasets/musdb18/train/St Vitus - Word Gets Around.stem_other.wav
p3018
sg12
I247
sg13
I44100
sbg4
(g5
g6
NtRp3019
(dp3020
g9
I2
sg10
V/mnt/disks/datasets/musdb18/train/St Vitus - Word Gets Around.stem_vocals.wav
p3021
sg12
I247
sg13
I44100
sbtp3022
a(g4
(g5
g6
NtRp3023
(dp3024
g9
I2
sg10
V/mnt/disks/datasets/musdb18/train/Patrick Talbot - Set Me Free.stem_mix.wav
p3025
sg12
I289
sg13
I44100
sbg4
(g5
g6
NtRp3026
(dp3027
g9
I2
sg10
V/mnt/disks/datasets/musdb18/train/Patrick Talbot - Set Me Free.stem_accompaniment.wav
p3028
sg12
I289
sg13
I44100
sbg4
(g5
g6
NtRp3029
(dp3030
g9
I2
sg10
V/mnt/disks/datasets/musdb18/train/Patrick Talbot - Set Me Free.stem_bass.wav
p3031
sg12
I289
sg13
I44100
sbg4
(g5
g6
NtRp3032
(dp3033
g9
I2
sg10
V/mnt/disks/datasets/musdb18/train/Patrick Talbot - Set Me Free.stem_drums.wav
p3034
sg12
I289
sg13
I44100
sbg4
(g5
g6
NtRp3035
(dp3036
g9
I2
sg10
V/mnt/disks/datasets/musdb18/train/Patrick Talbot - Set Me Free.stem_other.wav
p3037
sg12
I289
sg13
I44100
sbg4
(g5
g6
NtRp3038
(dp3039
g9
I2
sg10
V/mnt/disks/datasets/musdb18/train/Patrick Talbot - Set Me Free.stem_vocals.wav
p3040
sg12
I289
sg13
I44100
sbtp3041
a(g4
(g5
g6
NtRp3042
(dp3043
g9
I2
sg10
V/mnt/disks/datasets/musdb18/train/Traffic Experiment - Once More (With Feeling).stem_mix.wav
p3044
sg12
I435
sg13
I44100
sbg4
(g5
g6
NtRp3045
(dp3046
g9
I2
sg10
V/mnt/disks/datasets/musdb18/train/Traffic Experiment - Once More (With Feeling).stem_accompaniment.wav
p3047
sg12
I435
sg13
I44100
sbg4
(g5
g6
NtRp3048
(dp3049
g9
I2
sg10
V/mnt/disks/datasets/musdb18/train/Traffic Experiment - Once More (With Feeling).stem_bass.wav
p3050
sg12
I435
sg13
I44100
sbg4
(g5
g6
NtRp3051
(dp3052
g9
I2
sg10
V/mnt/disks/datasets/musdb18/train/Traffic Experiment - Once More (With Feeling).stem_drums.wav
p3053
sg12
I435
sg13
I44100
sbg4
(g5
g6
NtRp3054
(dp3055
g9
I2
sg10
V/mnt/disks/datasets/musdb18/train/Traffic Experiment - Once More (With Feeling).stem_other.wav
p3056
sg12
I435
sg13
I44100
sbg4
(g5
g6
NtRp3057
(dp3058
g9
I2
sg10
V/mnt/disks/datasets/musdb18/train/Traffic Experiment - Once More (With Feeling).stem_vocals.wav
p3059
sg12
I435
sg13
I44100
sbtp3060
a(g4
(g5
g6
NtRp3061
(dp3062
g9
I2
sg10
V/mnt/disks/datasets/musdb18/train/Celestial Shore - Die For Us.stem_mix.wav
p3063
sg12
I278
sg13
I44100
sbg4
(g5
g6
NtRp3064
(dp3065
g9
I2
sg10
V/mnt/disks/datasets/musdb18/train/Celestial Shore - Die For Us.stem_accompaniment.wav
p3066
sg12
I278
sg13
I44100
sbg4
(g5
g6
NtRp3067
(dp3068
g9
I2
sg10
V/mnt/disks/datasets/musdb18/train/Celestial Shore - Die For Us.stem_bass.wav
p3069
sg12
I278
sg13
I44100
sbg4
(g5
g6
NtRp3070
(dp3071
g9
I2
sg10
V/mnt/disks/datasets/musdb18/train/Celestial Shore - Die For Us.stem_drums.wav
p3072
sg12
I278
sg13
I44100
sbg4
(g5
g6
NtRp3073
(dp3074
g9
I2
sg10
V/mnt/disks/datasets/musdb18/train/Celestial Shore - Die For Us.stem_other.wav
p3075
sg12
I278
sg13
I44100
sbg4
(g5
g6
NtRp3076
(dp3077
g9
I2
sg10
V/mnt/disks/datasets/musdb18/train/Celestial Shore - Die For Us.stem_vocals.wav
p3078
sg12
I278
sg13
I44100
sbtp3079
a(g4
(g5
g6
NtRp3080
(dp3081
g9
I2
sg10
V/mnt/disks/datasets/musdb18/train/Lushlife - Toynbee Suite.stem_mix.wav
p3082
sg12
I628
sg13
I44100
sbg4
(g5
g6
NtRp3083
(dp3084
g9
I2
sg10
V/mnt/disks/datasets/musdb18/train/Lushlife - Toynbee Suite.stem_accompaniment.wav
p3085
sg12
I628
sg13
I44100
sbg4
(g5
g6
NtRp3086
(dp3087
g9
I2
sg10
V/mnt/disks/datasets/musdb18/train/Lushlife - Toynbee Suite.stem_bass.wav
p3088
sg12
I628
sg13
I44100
sbg4
(g5
g6
NtRp3089
(dp3090
g9
I2
sg10
V/mnt/disks/datasets/musdb18/train/Lushlife - Toynbee Suite.stem_drums.wav
p3091
sg12
I628
sg13
I44100
sbg4
(g5
g6
NtRp3092
(dp3093
g9
I2
sg10
V/mnt/disks/datasets/musdb18/train/Lushlife - Toynbee Suite.stem_other.wav
p3094
sg12
I628
sg13
I44100
sbg4
(g5
g6
NtRp3095
(dp3096
g9
I2
sg10
V/mnt/disks/datasets/musdb18/train/Lushlife - Toynbee Suite.stem_vocals.wav
p3097
sg12
I628
sg13
I44100
sbtp3098
a(g4
(g5
g6
NtRp3099
(dp3100
g9
I2
sg10
V/mnt/disks/datasets/musdb18/train/Giselle - Moss.stem_mix.wav
p3101
sg12
I201
sg13
I44100
sbg4
(g5
g6
NtRp3102
(dp3103
g9
I2
sg10
V/mnt/disks/datasets/musdb18/train/Giselle - Moss.stem_accompaniment.wav
p3104
sg12
I201
sg13
I44100
sbg4
(g5
g6
NtRp3105
(dp3106
g9
I2
sg10
V/mnt/disks/datasets/musdb18/train/Giselle - Moss.stem_bass.wav
p3107
sg12
I201
sg13
I44100
sbg4
(g5
g6
NtRp3108
(dp3109
g9
I2
sg10
V/mnt/disks/datasets/musdb18/train/Giselle - Moss.stem_drums.wav
p3110
sg12
I201
sg13
I44100
sbg4
(g5
g6
NtRp3111
(dp3112
g9
I2
sg10
V/mnt/disks/datasets/musdb18/train/Giselle - Moss.stem_other.wav
p3113
sg12
I201
sg13
I44100
sbg4
(g5
g6
NtRp3114
(dp3115
g9
I2
sg10
V/mnt/disks/datasets/musdb18/train/Giselle - Moss.stem_vocals.wav
p3116
sg12
I201
sg13
I44100
sbtp3117
a(g4
(g5
g6
NtRp3118
(dp3119
g9
I2
sg10
V/mnt/disks/datasets/musdb18/train/Hollow Ground - Left Blind.stem_mix.wav
p3120
sg12
I159
sg13
I44100
sbg4
(g5
g6
NtRp3121
(dp3122
g9
I2
sg10
V/mnt/disks/datasets/musdb18/train/Hollow Ground - Left Blind.stem_accompaniment.wav
p3123
sg12
I159
sg13
I44100
sbg4
(g5
g6
NtRp3124
(dp3125
g9
I2
sg10
V/mnt/disks/datasets/musdb18/train/Hollow Ground - Left Blind.stem_bass.wav
p3126
sg12
I159
sg13
I44100
sbg4
(g5
g6
NtRp3127
(dp3128
g9
I2
sg10
V/mnt/disks/datasets/musdb18/train/Hollow Ground - Left Blind.stem_drums.wav
p3129
sg12
I159
sg13
I44100
sbg4
(g5
g6
NtRp3130
(dp3131
g9
I2
sg10
V/mnt/disks/datasets/musdb18/train/Hollow Ground - Left Blind.stem_other.wav
p3132
sg12
I159
sg13
I44100
sbg4
(g5
g6
NtRp3133
(dp3134
g9
I2
sg10
V/mnt/disks/datasets/musdb18/train/Hollow Ground - Left Blind.stem_vocals.wav
p3135
sg12
I159
sg13
I44100
sbtp3136
a(g4
(g5
g6
NtRp3137
(dp3138
g9
I2
sg10
V/mnt/disks/datasets/musdb18/train/The So So Glos - Emergency.stem_mix.wav
p3139
sg12
I166
sg13
I44100
sbg4
(g5
g6
NtRp3140
(dp3141
g9
I2
sg10
V/mnt/disks/datasets/musdb18/train/The So So Glos - Emergency.stem_accompaniment.wav
p3142
sg12
I166
sg13
I44100
sbg4
(g5
g6
NtRp3143
(dp3144
g9
I2
sg10
V/mnt/disks/datasets/musdb18/train/The So So Glos - Emergency.stem_bass.wav
p3145
sg12
I166
sg13
I44100
sbg4
(g5
g6
NtRp3146
(dp3147
g9
I2
sg10
V/mnt/disks/datasets/musdb18/train/The So So Glos - Emergency.stem_drums.wav
p3148
sg12
I166
sg13
I44100
sbg4
(g5
g6
NtRp3149
(dp3150
g9
I2
sg10
V/mnt/disks/datasets/musdb18/train/The So So Glos - Emergency.stem_other.wav
p3151
sg12
I166
sg13
I44100
sbg4
(g5
g6
NtRp3152
(dp3153
g9
I2
sg10
V/mnt/disks/datasets/musdb18/train/The So So Glos - Emergency.stem_vocals.wav
p3154
sg12
I166
sg13
I44100
sbtp3155
a(g4
(g5
g6
NtRp3156
(dp3157
g9
I2
sg10
V/mnt/disks/datasets/musdb18/train/Bill Chudziak - Children Of No-one.stem_mix.wav
p3158
sg12
I230
sg13
I44100
sbg4
(g5
g6
NtRp3159
(dp3160
g9
I2
sg10
V/mnt/disks/datasets/musdb18/train/Bill Chudziak - Children Of No-one.stem_accompaniment.wav
p3161
sg12
I230
sg13
I44100
sbg4
(g5
g6
NtRp3162
(dp3163
g9
I2
sg10
V/mnt/disks/datasets/musdb18/train/Bill Chudziak - Children Of No-one.stem_bass.wav
p3164
sg12
I230
sg13
I44100
sbg4
(g5
g6
NtRp3165
(dp3166
g9
I2
sg10
V/mnt/disks/datasets/musdb18/train/Bill Chudziak - Children Of No-one.stem_drums.wav
p3167
sg12
I230
sg13
I44100
sbg4
(g5
g6
NtRp3168
(dp3169
g9
I2
sg10
V/mnt/disks/datasets/musdb18/train/Bill Chudziak - Children Of No-one.stem_other.wav
p3170
sg12
I230
sg13
I44100
sbg4
(g5
g6
NtRp3171
(dp3172
g9
I2
sg10
V/mnt/disks/datasets/musdb18/train/Bill Chudziak - Children Of No-one.stem_vocals.wav
p3173
sg12
I230
sg13
I44100
sbtp3174
a(g4
(g5
g6
NtRp3175
(dp3176
g9
I2
sg10
V/mnt/disks/datasets/musdb18/train/Atlantis Bound - It Was My Fault For Waiting.stem_mix.wav
p3177
sg12
I268
sg13
I44100
sbg4
(g5
g6
NtRp3178
(dp3179
g9
I2
sg10
V/mnt/disks/datasets/musdb18/train/Atlantis Bound - It Was My Fault For Waiting.stem_accompaniment.wav
p3180
sg12
I268
sg13
I44100
sbg4
(g5
g6
NtRp3181
(dp3182
g9
I2
sg10
V/mnt/disks/datasets/musdb18/train/Atlantis Bound - It Was My Fault For Waiting.stem_bass.wav
p3183
sg12
I268
sg13
I44100
sbg4
(g5
g6
NtRp3184
(dp3185
g9
I2
sg10
V/mnt/disks/datasets/musdb18/train/Atlantis Bound - It Was My Fault For Waiting.stem_drums.wav
p3186
sg12
I268
sg13
I44100
sbg4
(g5
g6
NtRp3187
(dp3188
g9
I2
sg10
V/mnt/disks/datasets/musdb18/train/Atlantis Bound - It Was My Fault For Waiting.stem_other.wav
p3189
sg12
I268
sg13
I44100
sbg4
(g5
g6
NtRp3190
(dp3191
g9
I2
sg10
V/mnt/disks/datasets/musdb18/train/Atlantis Bound - It Was My Fault For Waiting.stem_vocals.wav
p3192
sg12
I268
sg13
I44100
sbtp3193
a(g4
(g5
g6
NtRp3194
(dp3195
g9
I2
sg10
V/mnt/disks/datasets/musdb18/train/Music Delta - Punk.stem_mix.wav
p3196
sg12
I28
sg13
I44100
sbg4
(g5
g6
NtRp3197
(dp3198
g9
I2
sg10
V/mnt/disks/datasets/musdb18/train/Music Delta - Punk.stem_accompaniment.wav
p3199
sg12
I28
sg13
I44100
sbg4
(g5
g6
NtRp3200
(dp3201
g9
I2
sg10
V/mnt/disks/datasets/musdb18/train/Music Delta - Punk.stem_bass.wav
p3202
sg12
I28
sg13
I44100
sbg4
(g5
g6
NtRp3203
(dp3204
g9
I2
sg10
V/mnt/disks/datasets/musdb18/train/Music Delta - Punk.stem_drums.wav
p3205
sg12
I28
sg13
I44100
sbg4
(g5
g6
NtRp3206
(dp3207
g9
I2
sg10
V/mnt/disks/datasets/musdb18/train/Music Delta - Punk.stem_other.wav
p3208
sg12
I28
sg13
I44100
sbg4
(g5
g6
NtRp3209
(dp3210
g9
I2
sg10
V/mnt/disks/datasets/musdb18/train/Music Delta - Punk.stem_vocals.wav
p3211
sg12
I28
sg13
I44100
sbtp3212
a(g4
(g5
g6
NtRp3213
(dp3214
g9
I2
sg10
V/mnt/disks/datasets/musdb18/train/Strand Of Oaks - Spacestation.stem_mix.wav
p3215
sg12
I243
sg13
I44100
sbg4
(g5
g6
NtRp3216
(dp3217
g9
I2
sg10
V/mnt/disks/datasets/musdb18/train/Strand Of Oaks - Spacestation.stem_accompaniment.wav
p3218
sg12
I243
sg13
I44100
sbg4
(g5
g6
NtRp3219
(dp3220
g9
I2
sg10
V/mnt/disks/datasets/musdb18/train/Strand Of Oaks - Spacestation.stem_bass.wav
p3221
sg12
I243
sg13
I44100
sbg4
(g5
g6
NtRp3222
(dp3223
g9
I2
sg10
V/mnt/disks/datasets/musdb18/train/Strand Of Oaks - Spacestation.stem_drums.wav
p3224
sg12
I243
sg13
I44100
sbg4
(g5
g6
NtRp3225
(dp3226
g9
I2
sg10
V/mnt/disks/datasets/musdb18/train/Strand Of Oaks - Spacestation.stem_other.wav
p3227
sg12
I243
sg13
I44100
sbg4
(g5
g6
NtRp3228
(dp3229
g9
I2
sg10
V/mnt/disks/datasets/musdb18/train/Strand Of Oaks - Spacestation.stem_vocals.wav
p3230
sg12
I243
sg13
I44100
sbtp3231
a(g4
(g5
g6
NtRp3232
(dp3233
g9
I2
sg10
V/mnt/disks/datasets/musdb18/train/Fergessen - The Wind.stem_mix.wav
p3234
sg12
I191
sg13
I44100
sbg4
(g5
g6
NtRp3235
(dp3236
g9
I2
sg10
V/mnt/disks/datasets/musdb18/train/Fergessen - The Wind.stem_accompaniment.wav
p3237
sg12
I191
sg13
I44100
sbg4
(g5
g6
NtRp3238
(dp3239
g9
I2
sg10
V/mnt/disks/datasets/musdb18/train/Fergessen - The Wind.stem_bass.wav
p3240
sg12
I191
sg13
I44100
sbg4
(g5
g6
NtRp3241
(dp3242
g9
I2
sg10
V/mnt/disks/datasets/musdb18/train/Fergessen - The Wind.stem_drums.wav
p3243
sg12
I191
sg13
I44100
sbg4
(g5
g6
NtRp3244
(dp3245
g9
I2
sg10
V/mnt/disks/datasets/musdb18/train/Fergessen - The Wind.stem_other.wav
p3246
sg12
I191
sg13
I44100
sbg4
(g5
g6
NtRp3247
(dp3248
g9
I2
sg10
V/mnt/disks/datasets/musdb18/train/Fergessen - The Wind.stem_vocals.wav
p3249
sg12
I191
sg13
I44100
sbtp3250
a(g4
(g5
g6
NtRp3251
(dp3252
g9
I2
sg10
V/mnt/disks/datasets/musdb18/train/Jay Menon - Through My Eyes.stem_mix.wav
p3253
sg12
I253
sg13
I44100
sbg4
(g5
g6
NtRp3254
(dp3255
g9
I2
sg10
V/mnt/disks/datasets/musdb18/train/Jay Menon - Through My Eyes.stem_accompaniment.wav
p3256
sg12
I253
sg13
I44100
sbg4
(g5
g6
NtRp3257
(dp3258
g9
I2
sg10
V/mnt/disks/datasets/musdb18/train/Jay Menon - Through My Eyes.stem_bass.wav
p3259
sg12
I253
sg13
I44100
sbg4
(g5
g6
NtRp3260
(dp3261
g9
I2
sg10
V/mnt/disks/datasets/musdb18/train/Jay Menon - Through My Eyes.stem_drums.wav
p3262
sg12
I253
sg13
I44100
sbg4
(g5
g6
NtRp3263
(dp3264
g9
I2
sg10
V/mnt/disks/datasets/musdb18/train/Jay Menon - Through My Eyes.stem_other.wav
p3265
sg12
I253
sg13
I44100
sbg4
(g5
g6
NtRp3266
(dp3267
g9
I2
sg10
V/mnt/disks/datasets/musdb18/train/Jay Menon - Through My Eyes.stem_vocals.wav
p3268
sg12
I253
sg13
I44100
sbtp3269
a(g4
(g5
g6
NtRp3270
(dp3271
g9
I2
sg10
V/mnt/disks/datasets/musdb18/train/Angela Thomas Wade - Milk Cow Blues.stem_mix.wav
p3272
sg12
I210
sg13
I44100
sbg4
(g5
g6
NtRp3273
(dp3274
g9
I2
sg10
V/mnt/disks/datasets/musdb18/train/Angela Thomas Wade - Milk Cow Blues.stem_accompaniment.wav
p3275
sg12
I210
sg13
I44100
sbg4
(g5
g6
NtRp3276
(dp3277
g9
I2
sg10
V/mnt/disks/datasets/musdb18/train/Angela Thomas Wade - Milk Cow Blues.stem_bass.wav
p3278
sg12
I210
sg13
I44100
sbg4
(g5
g6
NtRp3279
(dp3280
g9
I2
sg10
V/mnt/disks/datasets/musdb18/train/Angela Thomas Wade - Milk Cow Blues.stem_drums.wav
p3281
sg12
I210
sg13
I44100
sbg4
(g5
g6
NtRp3282
(dp3283
g9
I2
sg10
V/mnt/disks/datasets/musdb18/train/Angela Thomas Wade - Milk Cow Blues.stem_other.wav
p3284
sg12
I210
sg13
I44100
sbg4
(g5
g6
NtRp3285
(dp3286
g9
I2
sg10
V/mnt/disks/datasets/musdb18/train/Angela Thomas Wade - Milk Cow Blues.stem_vocals.wav
p3287
sg12
I210
sg13
I44100
sbtp3288
a(g4
(g5
g6
NtRp3289
(dp3290
g9
I2
sg10
V/mnt/disks/datasets/musdb18/train/Remember December - C U Next Time.stem_mix.wav
p3291
sg12
I242
sg13
I44100
sbg4
(g5
g6
NtRp3292
(dp3293
g9
I2
sg10
V/mnt/disks/datasets/musdb18/train/Remember December - C U Next Time.stem_accompaniment.wav
p3294
sg12
I242
sg13
I44100
sbg4
(g5
g6
NtRp3295
(dp3296
g9
I2
sg10
V/mnt/disks/datasets/musdb18/train/Remember December - C U Next Time.stem_bass.wav
p3297
sg12
I242
sg13
I44100
sbg4
(g5
g6
NtRp3298
(dp3299
g9
I2
sg10
V/mnt/disks/datasets/musdb18/train/Remember December - C U Next Time.stem_drums.wav
p3300
sg12
I242
sg13
I44100
sbg4
(g5
g6
NtRp3301
(dp3302
g9
I2
sg10
V/mnt/disks/datasets/musdb18/train/Remember December - C U Next Time.stem_other.wav
p3303
sg12
I242
sg13
I44100
sbg4
(g5
g6
NtRp3304
(dp3305
g9
I2
sg10
V/mnt/disks/datasets/musdb18/train/Remember December - C U Next Time.stem_vocals.wav
p3306
sg12
I242
sg13
I44100
sbtp3307
a(g4
(g5
g6
NtRp3308
(dp3309
g9
I2
sg10
V/mnt/disks/datasets/musdb18/train/Skelpolu - Together Alone.stem_mix.wav
p3310
sg12
I325
sg13
I44100
sbg4
(g5
g6
NtRp3311
(dp3312
g9
I2
sg10
V/mnt/disks/datasets/musdb18/train/Skelpolu - Together Alone.stem_accompaniment.wav
p3313
sg12
I325
sg13
I44100
sbg4
(g5
g6
NtRp3314
(dp3315
g9
I2
sg10
V/mnt/disks/datasets/musdb18/train/Skelpolu - Together Alone.stem_bass.wav
p3316
sg12
I325
sg13
I44100
sbg4
(g5
g6
NtRp3317
(dp3318
g9
I2
sg10
V/mnt/disks/datasets/musdb18/train/Skelpolu - Together Alone.stem_drums.wav
p3319
sg12
I325
sg13
I44100
sbg4
(g5
g6
NtRp3320
(dp3321
g9
I2
sg10
V/mnt/disks/datasets/musdb18/train/Skelpolu - Together Alone.stem_other.wav
p3322
sg12
I325
sg13
I44100
sbg4
(g5
g6
NtRp3323
(dp3324
g9
I2
sg10
V/mnt/disks/datasets/musdb18/train/Skelpolu - Together Alone.stem_vocals.wav
p3325
sg12
I325
sg13
I44100
sbtp3326
a(g4
(g5
g6
NtRp3327
(dp3328
g9
I2
sg10
V/mnt/disks/datasets/musdb18/train/Meaxic - You Listen.stem_mix.wav
p3329
sg12
I412
sg13
I44100
sbg4
(g5
g6
NtRp3330
(dp3331
g9
I2
sg10
V/mnt/disks/datasets/musdb18/train/Meaxic - You Listen.stem_accompaniment.wav
p3332
sg12
I412
sg13
I44100
sbg4
(g5
g6
NtRp3333
(dp3334
g9
I2
sg10
V/mnt/disks/datasets/musdb18/train/Meaxic - You Listen.stem_bass.wav
p3335
sg12
I412
sg13
I44100
sbg4
(g5
g6
NtRp3336
(dp3337
g9
I2
sg10
V/mnt/disks/datasets/musdb18/train/Meaxic - You Listen.stem_drums.wav
p3338
sg12
I412
sg13
I44100
sbg4
(g5
g6
NtRp3339
(dp3340
g9
I2
sg10
V/mnt/disks/datasets/musdb18/train/Meaxic - You Listen.stem_other.wav
p3341
sg12
I412
sg13
I44100
sbg4
(g5
g6
NtRp3342
(dp3343
g9
I2
sg10
V/mnt/disks/datasets/musdb18/train/Meaxic - You Listen.stem_vocals.wav
p3344
sg12
I412
sg13
I44100
sbtp3345
a(g4
(g5
g6
NtRp3346
(dp3347
g9
I2
sg10
V/mnt/disks/datasets/musdb18/train/Meaxic - Take A Step.stem_mix.wav
p3348
sg12
I282
sg13
I44100
sbg4
(g5
g6
NtRp3349
(dp3350
g9
I2
sg10
V/mnt/disks/datasets/musdb18/train/Meaxic - Take A Step.stem_accompaniment.wav
p3351
sg12
I282
sg13
I44100
sbg4
(g5
g6
NtRp3352
(dp3353
g9
I2
sg10
V/mnt/disks/datasets/musdb18/train/Meaxic - Take A Step.stem_bass.wav
p3354
sg12
I282
sg13
I44100
sbg4
(g5
g6
NtRp3355
(dp3356
g9
I2
sg10
V/mnt/disks/datasets/musdb18/train/Meaxic - Take A Step.stem_drums.wav
p3357
sg12
I282
sg13
I44100
sbg4
(g5
g6
NtRp3358
(dp3359
g9
I2
sg10
V/mnt/disks/datasets/musdb18/train/Meaxic - Take A Step.stem_other.wav
p3360
sg12
I282
sg13
I44100
sbg4
(g5
g6
NtRp3361
(dp3362
g9
I2
sg10
V/mnt/disks/datasets/musdb18/train/Meaxic - Take A Step.stem_vocals.wav
p3363
sg12
I282
sg13
I44100
sbtp3364
asS'train_unsup'
p3365
(lp3366
s.